ccopy_reg
_reconstructor
p0
(ckeras.preprocessing.text
Tokenizer
p1
c__builtin__
object
p2
Ntp3
Rp4
(dp5
S'lower'
p6
I01
sS'word_index'
p7
(dp8
Vsecondly
p9
I1281
sVpardon
p10
I561
sVsaves
p11
I2514
sVknelt
p12
I1513
sVfour
p13
I426
sVsleep
p14
I584
sVhanging
p15
I855
sVringlets
p16
I1122
sVoldest
p17
I2494
sVhate
p18
I1158
sVassembled
p19
I1159
sVforget
p20
I1393
sVwhose
p21
I1165
sVlory
p22
I512
sVswam
p23
I639
sVblacking
p24
I2347
sVpresents
p25
I1118
sVunder
p26
I231
sVinwards
p27
I1780
sVsorry
p28
I1919
sVworth
p29
I689
sVrise
p30
I1901
sVevery
p31
I312
sVjack
p32
I1809
sVem
p33
I960
sVseals
p34
I2324
sVbringing
p35
I988
sVschool
p36
I595
sVprize
p37
I1708
sVwooden
p38
I1610
sVpinch
p39
I1344
sVpersisted
p40
I1425
sVfavoured
p41
I1666
sVleaders
p42
I1669
sVtired
p43
I475
sVfeathers
p44
I1654
sVelegant
p45
I1711
sVlikely
p46
I604
sVlouder
p47
I1958
sVmachines
p48
I1608
sVshining
p49
I1588
sVeven
p50
I206
sVmeekly
p51
I1338
sVhide
p52
I1694
sVpace
p53
I2441
sVsolemn
p54
I927
sVthunder
p55
I2164
sVnear
p56
I241
sVpoison
p57
I861
sVabove
p58
I963
sVconduct
p59
I1682
sVnew
p60
I607
sVever
p61
I196
sVtold
p62
I587
sVnever
p63
I104
sVwrapping
p64
I1739
sVhere
p65
I97
sVmet
p66
I934
sVprotection
p67
I2156
sVhers
p68
I819
sVcardboard
p69
I2516
sVshriek
p70
I664
sVdry
p71
I430
sVdaughter
p72
I1731
sVleaves
p73
I542
sVchanged
p74
I438
sVparis
p75
I1125
sVbarrowful
p76
I1222
sVsmoke
p77
I1965
sVchanges
p78
I1274
sVventured
p79
I715
sVgolden
p80
I489
sVgeography
p81
I1584
sVexplained
p82
I2374
sVangrily
p83
I405
sVfeelings
p84
I1148
sVbrought
p85
I975
sVpatience
p86
I1734
sVmoral
p87
I471
sVguests
p88
I1027
sVdrowned
p89
I1617
sVpunching
p90
I2319
sVspoke
p91
I222
sVwould
p92
I50
sVarms
p93
I580
sVinsult
p94
I1728
sVcall
p95
I404
sVtherefore
p96
I2039
sVleant
p97
I1838
sVfainting
p98
I2305
sVtell
p99
I143
sVbreathe
p100
I1013
sVpeeping
p101
I2161
sVhurt
p102
I851
sVgrief
p103
I2309
sVglass
p104
I359
sVexcellent
p105
I1232
sVadjourn
p106
I1688
sVhole
p107
I597
sVhold
p108
I365
sVmust
p109
I112
sVme
p110
I64
sVjoin
p111
I418
sVroom
p112
I301
sVwork
p113
I435
sVdodo
p114
I299
sVworm
p115
I1679
sVroof
p116
I544
sVobstacle
p117
I2509
sVelbow
p118
I954
sVmy
p119
I79
sVshook
p120
I406
sVrosetree
p121
I2145
sVquiver
p122
I1630
sVserpent
p123
I413
sVgive
p124
I318
sVunjust
p125
I2128
sVflung
p126
I2126
sVfrighten
p127
I1937
sVwant
p128
I398
sVhurrying
p129
I1502
sVkeep
p130
I345
sVreturned
p131
I1452
sVones
p132
I1715
sVend
p133
I221
sVthing
p134
I102
sVcomplaining
p135
I2194
sVagony
p136
I1979
sVpuzzled
p137
I414
sVhow
p138
I63
sVhot
p139
I476
sVanswer
p140
I388
sVtruthful
p141
I1930
sVpoker
p142
I1524
sVflustered
p143
I1808
sVmouths
p144
I823
sVlad
p145
I1796
sVladder
p146
I1795
sVafter
p147
I114
sVwrong
p148
I630
sVjumping
p149
I799
sVlay
p150
I777
sVcuriosity
p151
I601
sVlaw
p152
I1188
sVlap
p153
I1127
sVattempt
p154
I1781
sVchildhood
p155
I2565
sVwink
p156
I1142
sVwriggling
p157
I1924
sVgreen
p158
I790
sValoud
p159
I605
sVorder
p160
I993
sVwind
p161
I1086
sVwine
p162
I1328
sVexecuted
p163
I570
sVdreamed
p164
I2532
sVover
p165
I119
sVlondon
p166
I1585
sVmabel
p167
I726
sVbefore
p168
I129
sVchatte
p169
I1628
sVfit
p170
I1060
sVsomewhere
p171
I843
sVlefthand
p172
I1266
sVfix
p173
I1975
sVwriting
p174
I591
sVbetter
p175
I277
sVfig
p176
I2044
sVglanced
p177
I1989
sVcroquet
p178
I396
sVweeks
p179
I1918
sVovercome
p180
I2487
sVthen
p181
I43
sVthem
p182
I46
sVslate
p183
I771
sVsafe
p184
I1230
sVbreak
p185
I1335
sVcaterpillar
p186
I163
sVthey
p187
I26
sVinterrupt
p188
I2095
sVone
p189
I37
sVbank
p190
I833
sVbread
p191
I527
sVgrammar
p192
I1623
sVmeat
p193
I2379
sValternately
p194
I1969
sVleading
p195
I2114
sVherald
p196
I2421
sVgood
p197
I167
sVeleventh
p198
I2312
sVroast
p199
I1533
sVeach
p200
I458
sVwent
p201
I51
sVside
p202
I226
sVbone
p203
I2318
sVmean
p204
I378
sVcalmly
p205
I2275
sVtelescope
p206
I857
sVseries
p207
I1832
sVdodged
p208
I1826
sVvote
p209
I2082
sVtaught
p210
I713
sVforgot
p211
I1115
sVflock
p212
I2239
sVsounds
p213
I769
sVreminding
p214
I2472
sVvelvet
p215
I2141
sVtales
p216
I1777
sVsighing
p217
I932
sVforty
p218
I2491
sVfellows
p219
I2085
sVcontent
p220
I1890
sVre
p221
I130
sVlaid
p222
I1329
sVgot
p223
I110
sVcheerfully
p224
I1593
sVsplashed
p225
I2537
sVstamping
p226
I1381
sVturning
p227
I322
sVgiven
p228
I2076
sVfree
p229
I978
sVuglification
p230
I1412
sVwhereupon
p231
I1822
sVmallets
p232
I2168
sVreturning
p233
I1572
sVwanted
p234
I746
sVtelescopes
p235
I1518
sVenormous
p236
I1816
sVate
p237
I1553
sVshelves
p238
I1074
sVwrithing
p239
I2286
sVcackled
p240
I2490
sVmessages
p241
I1201
sVdays
p242
I797
sVpence
p243
I2429
sVisn
p244
I521
sVmoving
p245
I965
sVfootsteps
p246
I1197
sVbite
p247
I1398
sVenjoy
p248
I1999
sValready
p249
I1299
sVdunce
p250
I2444
sVcuriouser
p251
I1114
sVencouraging
p252
I1242
sVhearing
p253
I770
sVwash
p254
I1345
sVanother
p255
I190
sVwasn
p256
I344
sVthoughtfully
p257
I789
sVthick
p258
I1813
sVawfully
p259
I1885
sVxii
p260
I2466
sVtop
p261
I425
sVgirls
p262
I982
sVairs
p263
I1886
sVmaster
p264
I772
sVtoo
p265
I171
sVwildly
p266
I1390
sVlegs
p267
I871
sVbitter
p268
I2227
sVdogs
p269
I906
sVlisten
p270
I482
sVconsented
p271
I2096
sVceiling
p272
I1768
sVsolemnly
p273
I748
sVtook
p274
I181
sVpositively
p275
I1660
sVcharacter
p276
I2504
sVbegins
p277
I814
sVdistance
p278
I428
sVcoward
p279
I1789
sVtree
p280
I463
sVsecond
p281
I709
sVseated
p282
I2399
sVshower
p283
I1223
sVmatter
p284
I389
sVsplendidly
p285
I1573
sVexclaimed
p286
I593
sVflame
p287
I1539
sVfriend
p288
I1037
sVaskance
p289
I2339
sVfeeling
p290
I495
sVchrysalis
p291
I1851
sVfashion
p292
I1438
sVran
p293
I230
sVshyly
p294
I1847
sVmodern
p295
I2302
sVmind
p296
I326
sVmine
p297
I370
sVtalking
p298
I224
sVrat
p299
I1512
sVmanner
p300
I1359
sVseen
p301
I240
sVseem
p302
I429
sVtells
p303
I1340
sVeels
p304
I2349
sVstrength
p305
I1881
sVthoroughly
p306
I1306
sVeagerly
p307
I446
sVsubjects
p308
I2299
sVdoors
p309
I1088
sVlaughed
p310
I1280
sVgravy
p311
I2378
sVnobody
p312
I453
sVthough
p313
I329
sVregular
p314
I1411
sVmouth
p315
I379
sVletter
p316
I992
sVgrave
p317
I925
sVzealand
p318
I1490
sVdon
p319
I74
sValarm
p320
I1267
sVm
p321
I69
sVdog
p322
I907
sVridiculous
p323
I2442
sVsun
p324
I1404
sVnotion
p325
I901
sVcame
p326
I121
sVdecidedly
p327
I788
sVsaying
p328
I244
sVcurrants
p329
I1551
sVpardoned
p330
I2261
sVpope
p331
I1667
sVlewis
p332
I1456
sVqueen
p333
I59
sVsage
p334
I1867
sVending
p335
I1322
sVattempts
p336
I2454
sVqueer
p337
I319
sVearth
p338
I696
sVlessons
p339
I353
sVbusy
p340
I1246
sVspite
p341
I1821
sVexplain
p342
I375
sVfolded
p343
I972
sVsugar
p344
I1392
sVabout
p345
I44
sVdisgust
p346
I2111
sVdo
p347
I54
sVcartwheels
p348
I1794
sVsqueaking
p349
I1220
sVstop
p350
I553
sVcoast
p351
I1606
sVfrowning
p352
I747
sVshutting
p353
I1096
sVcushion
p354
I1326
sValtogether
p355
I619
sVfrying
p356
I2002
sVnasty
p357
I1640
sVlearned
p358
I2280
sVbat
p359
I850
sVnicely
p360
I1151
sVanxiously
p361
I267
sVrumbling
p362
I1793
sVlicking
p363
I1635
sVtwice
p364
I598
sVbad
p365
I1135
sVsoftly
p366
I1651
sVexplanations
p367
I2355
sVsteam
p368
I2006
sVears
p369
I612
sVblew
p370
I1434
sVfair
p371
I2252
sVdepends
p372
I2033
sVtoes
p373
I1045
sVsubmitted
p374
I1668
sVcattle
p375
I2559
sVmiserable
p376
I1441
sVmournfully
p377
I2074
sVbest
p378
I314
sVsubject
p379
I563
sVpebbles
p380
I1224
sVsaid
p381
I10
sVaway
p382
I178
sVunable
p383
I2482
sVfinger
p384
I617
sVsorts
p385
I888
sVclaws
p386
I1129
sVwe
p387
I136
sVinterrupting
p388
I1357
sVterms
p389
I2073
sVadding
p390
I1931
sVconfusion
p391
I649
sVweak
p392
I1249
sVhowever
p393
I202
sVcamomile
p394
I2226
sVtwinkling
p395
I811
sVdrew
p396
I665
sVpicking
p397
I1062
sVkitchen
p398
I798
sVpity
p399
I939
sVreceived
p400
I2384
sVaccident
p401
I1445
sVcountry
p402
I1489
sVill
p403
I1351
sVadventures
p404
I474
sVagainst
p405
I397
sVplayers
p406
I818
sVgames
p407
I2315
sVfaces
p408
I678
sVargue
p409
I1959
sVasked
p410
I228
sVtone
p411
I124
sVappeared
p412
I456
sVroyal
p413
I1367
sVlullaby
p414
I1993
sVheight
p415
I669
sVwider
p416
I2032
sVbeheaded
p417
I1022
sVspeak
p418
I249
sVshouting
p419
I1382
sVremained
p420
I876
sVthree
p421
I162
sVbeen
p422
I131
sVquarrelling
p423
I1380
sVchimneys
p424
I2048
sVstartled
p425
I1314
sVaxis
p426
I1986
sVinterest
p427
I2089
sVschoolroom
p428
I1485
sVexpected
p429
I1766
sVlovely
p430
I1110
sVthrew
p431
I1307
sVnatured
p432
I2027
sVlife
p433
I316
sVwags
p434
I2037
sVmushroom
p435
I459
sVtwinkled
p436
I2445
sVgrunt
p437
I2015
sVuncommon
p438
I2373
sVchild
p439
I337
sVcatch
p440
I702
sVdoth
p441
I890
sVteapot
p442
I2112
sVsave
p443
I1769
sVlessen
p444
I2311
sVtastes
p445
I2389
sVair
p446
I243
sVugly
p447
I1313
sVlizard
p448
I577
sVsuppose
p449
I274
sVviii
p450
I2117
sVstopping
p451
I1472
sVvoice
p452
I105
sVmistake
p453
I948
sVremembering
p454
I2569
sVix
p455
I2220
sVseven
p456
I556
sVfourteenth
p457
I2423
sVplayed
p458
I2184
sVis
p459
I36
sVit
p460
I6
sViv
p461
I1745
sVii
p462
I1556
sVgloomily
p463
I2063
sVclinging
p464
I1655
sVin
p465
I13
sVmouse
p466
I113
sVif
p467
I41
sVgrown
p468
I517
sVgrowl
p469
I1001
sVseverity
p470
I2055
sVthings
p471
I148
sVmake
p472
I166
sVlinked
p473
I2249
sVforehead
p474
I1182
sVunfortunate
p475
I1030
sVvegetable
p476
I2242
sVplates
p477
I1297
sVseveral
p478
I697
sVcouple
p479
I1873
sVbells
p480
I2551
sVfairly
p481
I2193
sVtops
p482
I1908
sVhand
p483
I195
sVdelight
p484
I856
sVmarched
p485
I2158
sVcanterbury
p486
I1677
sVdozing
p487
I1497
sVopportunity
p488
I427
sVthoughts
p489
I1421
sVkid
p490
I625
sVbutter
p491
I415
sVhearth
p492
I1970
sVkept
p493
I296
sVpattering
p494
I884
sVsettled
p495
I985
sVhumble
p496
I2151
sVrome
p497
I1126
sVhumbly
p498
I1190
sVimpertinent
p499
I2204
sVhearts
p500
I468
sVthe
p501
I2
sVyours
p502
I984
sVleft
p503
I266
sVjust
p504
I90
sVsentence
p505
I560
sVsleepy
p506
I599
sVatheling
p507
I1681
sVverses
p508
I831
sVfarther
p509
I2047
sVyes
p510
I286
sVyer
p511
I767
sVyet
p512
I180
sVnote
p513
I1446
sVspectacles
p514
I1056
sVhjckrrh
p515
I2274
sVcherry
p516
I1528
sVhad
p517
I23
sVgrumbled
p518
I2062
sVbelongs
p519
I1155
sVeasy
p520
I1179
sVprison
p521
I2217
sVhas
p522
I514
sVhat
p523
I2430
sVgave
p524
I248
sVboxed
p525
I2162
sVmayn
p526
I2277
sVpossible
p527
I1783
sVpossibly
p528
I870
sVdreamy
p529
I1496
sVflamingoes
p530
I1376
sVafore
p531
I2130
sVjudge
p532
I754
sVburnt
p533
I1522
sVshoulder
p534
I810
sVsorrows
p535
I2567
sVappearing
p536
I2045
sVuncivil
p537
I1954
sVseaside
p538
I1605
sValice
p539
I12
sVquadrille
p540
I820
sVofficer
p541
I2458
sVnight
p542
I609
sVhung
p543
I1474
sVtowards
p544
I2050
sVright
p545
I142
sVold
p546
I211
sVdeal
p547
I317
sVpeople
p548
I287
sVsends
p549
I1746
sVcrown
p550
I917
sVsomehow
p551
I1604
sVdead
p552
I775
sVclubs
p553
I2131
sVescape
p554
I733
sVdear
p555
I157
sVstraightening
p556
I2009
sVbore
p557
I2234
sVgoldfish
p558
I1444
sVcreep
p559
I1552
sVconfusing
p560
I974
sVdenies
p561
I2446
sVfor
p562
I25
sVbottom
p563
I813
sVpurple
p564
I2525
sVeverything
p565
I269
sVasking
p566
I608
sVshakespeare
p567
I1704
sVdenied
p568
I1316
sVserpents
p569
I981
sVbeating
p570
I1271
sVchristmas
p571
I1560
sVpinched
p572
I1348
sVneatly
p573
I1128
sVburn
p574
I1104
sVdisappeared
p575
I1389
sVlamps
p576
I1504
sVlosing
p577
I1889
sVbowing
p578
I2150
sVpermitted
p579
I2383
sVproceed
p580
I1172
sVchapter
p581
I307
sVtheirs
p582
I1714
sVnewspapers
p583
I2452
sVchoke
p584
I1806
sVo
p585
I558
sVdinner
p586
I1154
sVdespair
p587
I1706
sVsluggard
p588
I2358
sVraised
p589
I1323
sVsob
p590
I1913
sVwasting
p591
I1189
sVpuzzle
p592
I1579
sVdelighted
p593
I1227
sVsoo
p594
I532
sVson
p595
I1861
sVdown
p596
I38
sVremarks
p597
I976
sVbats
p598
I703
sVbalanced
p599
I1884
sVfrightened
p600
I508
sVcleared
p601
I2326
sVcrowd
p602
I778
sVwag
p603
I2038
sVsneezing
p604
I585
sVfight
p605
I1385
sVderision
p606
I2290
sVmorcar
p607
I1167
sVmusic
p608
I1015
sVwas
p609
I14
sVhappy
p610
I2570
sVfork
p611
I2385
sVhead
p612
I98
sVwaistcoat
p613
I1066
sVform
p614
I2322
sVoffer
p615
I1177
sVattempted
p616
I2513
sVbecoming
p617
I2412
sVremarking
p618
I943
sVfailure
p619
I1782
sVhear
p620
I256
sVheap
p621
I1499
sVboon
p622
I2382
sVremoved
p623
I1384
sVtrue
p624
I694
sVflavour
p625
I1527
sVrippling
p626
I2547
sVinside
p627
I1282
sVuntil
p628
I624
sVunusually
p629
I1982
sVtemper
p630
I654
sVproud
p631
I1409
sVproved
p632
I1212
sVsticks
p633
I1500
sVfury
p634
I933
sVtoss
p635
I2534
sVmuscular
p636
I1880
sVevidence
p637
I535
sVhowling
p638
I995
sVguessed
p639
I946
sVpromised
p640
I1718
sVcurious
p641
I209
sVaccounting
p642
I2388
sVfloor
p643
I952
sVtossing
p644
I1005
sVhanded
p645
I921
sVtis
p646
I685
sVbeheading
p647
I2188
sVsetting
p648
I2530
sVholding
p649
I875
sVtie
p650
I1797
sVvanished
p651
I759
sVshrink
p652
I1538
sVsaucepans
p653
I1977
sVpicture
p654
I2262
sVpronounced
p655
I1785
sVsurprise
p656
I668
sVointment
p657
I1871
sVfelt
p658
I185
sVskirt
p659
I2469
sVfell
p660
I539
sVridges
p661
I2165
sVinkstand
p662
I2520
sVunlocking
p663
I2116
sVdied
p664
I2247
sVpuss
p665
I2031
sVspades
p666
I1611
sVfaster
p667
I1002
sVtogether
p668
I410
sVbeds
p669
I1092
sVlonged
p670
I1091
sVcontemptuous
p671
I2367
sVremarked
p672
I381
sVpush
p673
I2505
sVtreading
p674
I1418
sVmanaged
p675
I693
sVremarkable
p676
I1063
sVwhoever
p677
I1936
sVdance
p678
I306
sVuntwist
p679
I1935
sVrudeness
p680
I2110
sVinvent
p681
I1925
sVcrocodile
p682
I1586
sVmile
p683
I1447
sVchair
p684
I2053
sVmilk
p685
I1083
sVrow
p686
I1087
sVcertainly
p687
I265
sVfather
p688
I581
sVpassage
p689
I704
sVanswered
p690
I765
sVunpleasant
p691
I1102
sVterror
p692
I1980
sVcircumstances
p693
I1844
sVjogged
p694
I2120
sVfancied
p695
I1208
sVbrown
p696
I1153
sVadvantage
p697
I1003
sVkeeping
p698
I1396
sVhatter
p699
I84
sVchoice
p700
I1401
sVstays
p701
I2065
sVcook
p702
I305
sVword
p703
I355
sVtrouble
p704
I537
sVexact
p705
I1701
sVfeeble
p706
I1219
sVminute
p707
I198
sVcool
p708
I1094
sVswallowing
p709
I1856
sVsighed
p710
I653
sVpresented
p711
I1709
sVdid
p712
I68
sVturns
p713
I1035
sVdig
p714
I2245
sVbrother
p715
I1621
sVleave
p716
I395
sVsettle
p717
I2214
sVquick
p718
I1200
sVteaching
p719
I1841
sVscaly
p720
I2341
sVround
p721
I118
sVprevent
p722
I2011
sVbrave
p723
I1483
sVsays
p724
I738
sVtougher
p725
I1874
sVsigh
p726
I812
sVsign
p727
I2499
sVcost
p728
I2257
sVdried
p729
I1571
sVeating
p730
I2090
sVhelpless
p731
I2212
sVirritated
p732
I1853
sVappear
p733
I1319
sVaxes
p734
I1987
sVlazily
p735
I1633
sVgoes
p736
I505
sVreply
p737
I650
sVfalling
p738
I1071
sVground
p739
I466
sVfilled
p740
I839
sVgrowls
p741
I2036
sVjury
p742
I192
sVpartners
p743
I2329
sVhonour
p744
I768
sVv
p745
I1845
sVfrench
p746
I735
sVwater
p747
I636
sVtwentieth
p748
I2524
sVyards
p749
I2026
sVhoarse
p750
I892
sValong
p751
I546
sVchange
p752
I271
sVwait
p753
I1857
sVbox
p754
I366
sVboy
p755
I1004
sVimpatiently
p756
I652
sVlazy
p757
I2263
sVwherever
p758
I1139
sVgryphon
p759
I87
sVtrial
p760
I377
sVusually
p761
I1105
sVshifting
p762
I2436
sVquarrel
p763
I2195
sVuseful
p764
I1156
sVmorals
p765
I2236
sVextra
p766
I2282
sVhopeful
p767
I2223
sVmerely
p768
I1258
sVmarked
p769
I547
sVhistories
p770
I1521
sVinquisitively
p771
I1624
sVpuffed
p772
I1858
sVswallowed
p773
I1812
sVstingy
p774
I2230
sVeverybody
p775
I450
sVdriest
p776
I1665
sVangry
p777
I643
sVvisit
p778
I2034
sVonly
p779
I100
sVfrance
p780
I2343
sVlive
p781
I440
sVgoing
p782
I165
sVsomersault
p783
I1247
sVwondering
p784
I488
sVteeth
p785
I2028
sVtoday
p786
I2115
sVloving
p787
I2564
sVwept
p788
I1615
sVentrance
p789
I2118
sVsharing
p790
I2376
sVafford
p791
I2283
sVflying
p792
I2526
sVteases
p793
I1997
sVignorant
p794
I1494
sVoop
p795
I533
sVfly
p796
I1016
sVdeserved
p797
I2122
sVpretend
p798
I1549
sVlongitude
p799
I1081
sVcat
p800
I132
sVsoup
p801
I219
sVsour
p802
I2225
sVcan
p803
I71
sVgrowing
p804
I339
sVmaking
p805
I420
sVtoffee
p806
I1535
sVlaughter
p807
I2163
sVslightest
p808
I2068
sVheart
p809
I1406
sVcrazy
p810
I1960
sVundertone
p811
I1443
sVnursing
p812
I998
sVfigure
p813
I1044
sVcarroll
p814
I1457
sVconfused
p815
I750
sVpaused
p816
I1697
sVlocks
p817
I1090
sVchin
p818
I509
sVdropped
p819
I626
sVcounting
p820
I2298
sVstole
p821
I1428
sVevidently
p822
I2159
sVpink
p823
I1463
sVwinter
p824
I1699
sVfortunately
p825
I1469
sVbuttered
p826
I1536
sVwatching
p827
I1023
sVpine
p828
I1531
sVwrite
p829
I574
sVtill
p830
I199
sVfourth
p831
I2060
sVstigand
p832
I1675
sVcondemn
p833
I1724
sVmay
p834
I303
sVneat
p835
I1752
sVdive
p836
I1907
sVannoyed
p837
I1920
sVspot
p838
I2434
sVfireplace
p839
I1802
sVcrashed
p840
I2542
sVbirthday
p841
I2244
sVtipped
p842
I2468
sVmad
p843
I254
sVsuch
p844
I117
sVgrow
p845
I294
sVman
p846
I672
sVscrambling
p847
I1804
sVclassics
p848
I2308
sVbranches
p849
I1278
sVremember
p850
I263
sVsucceeded
p851
I980
sVwhenever
p852
I1765
sVmaybe
p853
I1286
sVbleeds
p854
I1525
sVtale
p855
I743
sVsh
p856
I1354
sVso
p857
I27
sVcrept
p858
I1946
sVoffend
p859
I2101
sVarrived
p860
I2401
sVpulled
p861
I1707
sVtalk
p862
I275
sVrecognised
p863
I2139
sVshoes
p864
I499
sVseeing
p865
I2024
sVindeed
p866
I237
sVpointed
p867
I1749
sVcanary
p868
I1740
sVyears
p869
I2563
sVcourse
p870
I174
sVquarrelled
p871
I2075
sVshake
p872
I1994
sVargued
p873
I1878
sVcold
p874
I1663
sVstill
p875
I285
sVbirds
p876
I372
sVlimbs
p877
I1869
sVyawning
p878
I1346
sVthank
p879
I774
sVcurly
p880
I1644
sVinteresting
p881
I660
sVcurls
p882
I1948
sVcivil
p883
I1011
sVwindow
p884
I454
sVdreadfully
p885
I590
sVthump
p886
I1085
sVfrontispiece
p887
I2410
sVours
p888
I2281
sVconquest
p889
I1672
sVhappened
p890
I492
sVlonely
p891
I1196
sVtucked
p892
I1034
sVconversations
p893
I1459
sVsooner
p894
I1106
sVbound
p895
I2331
sVunderneath
p896
I1895
sVtails
p897
I1048
sVcauldron
p898
I1292
sVhalf
p899
I186
sVnot
p900
I29
sVnow
p901
I75
sVhall
p902
I390
sVnor
p903
I837
sVexecute
p904
I2155
sVshouted
p905
I411
sVname
p906
I356
sVrespectable
p907
I1550
sVcorners
p908
I2133
sVdidn
p909
I261
sVlocked
p910
I1505
sVrock
p911
I2269
sVscolded
p912
I1546
sVentirely
p913
I1388
sVneedn
p914
I1029
sVturtle
p915
I77
sVeh
p916
I2102
sVbursting
p917
I2175
sVbeloved
p918
I2344
sVhurried
p919
I328
sVgoose
p920
I1217
sVcatching
p921
I1152
sVbegun
p922
I485
sVyear
p923
I1341
sVhappen
p924
I423
sVworried
p925
I2246
sVgiddy
p926
I1321
sVliving
p927
I1352
sVcanvas
p928
I2448
sVopened
p929
I361
sVabide
p930
I1991
sVhastily
p931
I238
sVlooking
p932
I145
sVseriously
p933
I2018
sVcheshire
p934
I524
sVhousemaid
p935
I1750
sVjuror
p936
I2420
sVattended
p937
I2241
sVstate
p938
I1854
sVcart
p939
I1829
sVquite
p940
I86
sVscreaming
p941
I2208
sVbesides
p942
I727
sVcare
p943
I721
sVadvance
p944
I1043
sVcouldn
p945
I387
sVreasonable
p946
I2440
sVhonest
p947
I2501
sVturn
p948
I346
sVplace
p949
I455
sVinvitation
p950
I1279
sVwarning
p951
I2253
sVthink
p952
I89
sVwaited
p953
I334
sVfirst
p954
I96
sVsprawling
p955
I2471
sVarithmetic
p956
I2287
sVxi
p957
I2398
sVbeauti
p958
I2393
sVspoken
p959
I2123
sVyourself
p960
I368
sVmerrily
p961
I2135
sVlong
p962
I144
sVdirectly
p963
I1202
sVcarry
p964
I2020
sVimpossible
p965
I858
sVring
p966
I1164
sVopen
p967
I490
sVtomorrow
p968
I1955
sVsize
p969
I292
sVsheep
p970
I2550
sVlittle
p971
I33
sVchecked
p972
I1024
sVsilent
p973
I523
sVarch
p974
I2198
sVcaught
p975
I1006
sVwaist
p976
I2237
sVtrampled
p977
I1831
sVshiver
p978
I1673
sVwhite
p979
I151
sVspeaking
p980
I641
sVeyes
p981
I156
sVway
p982
I83
sVmostly
p983
I1368
sVthat
p984
I15
sVsnatch
p985
I1213
sValas
p986
I708
sVeyed
p987
I1642
sVeditions
p988
I1423
sVflowers
p989
I1093
sVthan
p990
I182
sVwide
p991
I1333
sVapples
p992
I1216
sVventure
p993
I941
sVwere
p994
I49
sVcards
p995
I1028
sVwandering
p996
I1270
sVand
p997
I3
sVaddressing
p998
I1736
sVtasted
p999
I983
sVtarts
p1000
I534
sVpatted
p1001
I1716
sVann
p1002
I761
sVturned
p1003
I234
sVargument
p1004
I745
sVvoices
p1005
I920
sVsay
p1006
I94
sVanger
p1007
I1244
sVsaw
p1008
I259
sVany
p1009
I127
sVsat
p1010
I227
sVsnorting
p1011
I2005
sVtulip
p1012
I2124
sVdownwards
p1013
I2481
sVwandered
p1014
I1231
sVemphasis
p1015
I2479
sVhookah
p1016
I671
sVtake
p1017
I189
sVhaste
p1018
I2480
sVencouraged
p1019
I2297
sVbutterfly
p1020
I1852
sVbegin
p1021
I290
sVsure
p1022
I184
sValtered
p1023
I1887
sVopposite
p1024
I2143
sVknew
p1025
I270
sVclearer
p1026
I2517
sVzigzag
p1027
I1906
sVprinted
p1028
I1519
sVpair
p1029
I622
sVknee
p1030
I682
sVeducations
p1031
I2278
sVqueens
p1032
I2138
sVpencils
p1033
I2485
sVfairy
p1034
I1776
sVfills
p1035
I1787
sVconsidered
p1036
I990
sVegg
p1037
I1929
sVlater
p1038
I865
sVsteady
p1039
I1883
sVhungry
p1040
I968
sVmanaging
p1041
I2171
sVjoys
p1042
I2568
sVstockings
p1043
I1558
sVhedgehog
p1044
I529
sVsalt
p1045
I1136
sVtrembled
p1046
I1211
sVwalking
p1047
I611
sVshow
p1048
I903
sVcheap
p1049
I2243
sVbright
p1050
I431
sVcorner
p1051
I705
sVfifth
p1052
I1726
sVcurled
p1053
I1206
sVbusily
p1054
I802
sVnodded
p1055
I2190
sVbehind
p1056
I289
sVeither
p1057
I352
sVcoaxing
p1058
I1236
sVtears
p1059
I336
sVwood
p1060
I457
sVshrill
p1061
I642
sVdispute
p1062
I1383
sVget
p1063
I106
sVhiss
p1064
I1909
sVwhiles
p1065
I2081
sVunimportant
p1066
I687
sVcannot
p1067
I2478
sVnearly
p1068
I343
sVhedge
p1069
I1068
sVresource
p1070
I1771
sVseldom
p1071
I1545
sVmorning
p1072
I628
sVstupid
p1073
I536
sVexecutes
p1074
I2267
sVfinishing
p1075
I2201
sVwhere
p1076
I252
sVdeclared
p1077
I1674
sVcrumbs
p1078
I809
sVburst
p1079
I1598
sVstation
p1080
I1614
sVpennyworth
p1081
I1427
sVfanned
p1082
I1840
sVasleep
p1083
I467
sVwonder
p1084
I213
sVways
p1085
I2092
sVjumped
p1086
I543
sVlabel
p1087
I1097
sVteacup
p1088
I1057
sVenough
p1089
I217
sVbetween
p1090
I586
sVaccustomed
p1091
I1670
sVreading
p1092
I835
sVacross
p1093
I600
sVcaucus
p1094
I911
sVwhispered
p1095
I683
sVnotice
p1096
I646
sVtut
p1097
I1395
sVqueerest
p1098
I2496
sVkilling
p1099
I1482
sVblame
p1100
I2121
sVsingers
p1101
I1439
sVcome
p1102
I107
sVcroqueted
p1103
I2199
sVdates
p1104
I2426
sVmany
p1105
I308
sVstupidest
p1106
I2113
sVquiet
p1107
I1149
sVnile
p1108
I1591
sVblasts
p1109
I1435
sVpersonal
p1110
I1331
sVs
p1111
I1
sVloudly
p1112
I991
sVdisappointment
p1113
I1479
sVrailway
p1114
I1137
sVexpression
p1115
I2174
sVcomes
p1116
I1221
sVconcert
p1117
I1343
sVamong
p1118
I309
sVloveliest
p1119
I1514
sVsulky
p1120
I914
sVlacie
p1121
I2087
sVpot
p1122
I2157
sVpop
p1123
I1470
sVaccusation
p1124
I2422
sVstretched
p1125
I1238
sVlearning
p1126
I1356
sVconstant
p1127
I1285
sVcustody
p1128
I1402
sVmuttered
p1129
I1288
sVuglify
p1130
I2295
sVcares
p1131
I1426
sVsuppressed
p1132
I829
sVmark
p1133
I1046
sVbreath
p1134
I755
sVpunished
p1135
I1616
sVjudging
p1136
I1941
sVhardly
p1137
I315
sVmary
p1138
I760
sVwants
p1139
I1330
sVdirection
p1140
I659
sVthousand
p1141
I1077
sVflurry
p1142
I2467
sVwake
p1143
I1347
sVthose
p1144
I362
sVcase
p1145
I637
sVmyself
p1146
I500
sVfolding
p1147
I2459
sVturtles
p1148
I1416
sVthese
p1149
I272
sVsobbed
p1150
I2019
sVproves
p1151
I1451
sVslippery
p1152
I1543
sVantipathies
p1153
I1488
sVpromising
p1154
I1855
sVsqueezed
p1155
I2231
sVshrieks
p1156
I1790
sVinvited
p1157
I1317
sVrubbing
p1158
I1358
sVengaged
p1159
I2210
sVcouples
p1160
I2136
sVmiddle
p1161
I487
sVsudden
p1162
I635
sVheels
p1163
I1828
sVworry
p1164
I1825
sVdifferent
p1165
I400
sVpat
p1166
I959
sVootiful
p1167
I825
sVedwin
p1168
I1166
sVsame
p1169
I183
sVspeech
p1170
I923
sVtriumphantly
p1171
I1353
sVpan
p1172
I2003
sVweek
p1173
I1042
sVfinish
p1174
I651
sVnest
p1175
I1933
sVpersons
p1176
I2492
sVrunning
p1177
I449
sVchanging
p1178
I1253
sVpassing
p1179
I2205
sVcomplained
p1180
I1713
sVjurors
p1181
I826
sVcharges
p1182
I1833
sVno
p1183
I45
sVroughly
p1184
I1995
sVwithout
p1185
I170
sVgrinned
p1186
I1000
sVbottle
p1187
I363
sVfidgeted
p1188
I2433
sVsummer
p1189
I1436
sVbeing
p1190
I210
sVgenerally
p1191
I496
sVrest
p1192
I376
sVviolent
p1193
I1264
sVgrowled
p1194
I1729
sVkill
p1195
I2013
sVtouch
p1196
I1818
sVexclamation
p1197
I2273
sVspeed
p1198
I1602
sVafterwards
p1199
I1064
sVblow
p1200
I1265
sVdeath
p1201
I1725
sVdipped
p1202
I1070
sVhint
p1203
I1301
sVthinking
p1204
I342
sVrose
p1205
I815
sVseems
p1206
I633
sVexcept
p1207
I706
sVverse
p1208
I804
sVstruck
p1209
I1119
sVpegs
p1210
I1475
sVreal
p1211
I951
sVaround
p1212
I1051
sVkills
p1213
I1648
sVdesperately
p1214
I1963
sVrules
p1215
I860
sVlowing
p1216
I2558
sVdark
p1217
I838
sVlistening
p1218
I847
sVworld
p1219
I478
sVearls
p1220
I1168
sVexecution
p1221
I1032
sVlady
p1222
I1017
sVvague
p1223
I2476
sVdare
p1224
I648
sVtremulous
p1225
I2372
sVpounds
p1226
I1647
sVdraggled
p1227
I1653
sVsternly
p1228
I1848
sVnose
p1229
I462
sVdownward
p1230
I1487
sVtart
p1231
I1529
sVreduced
p1232
I2427
sVtwelve
p1233
I729
sVshillings
p1234
I2428
sVlobster
p1235
I530
sVrespect
p1236
I2030
sVenergetic
p1237
I1691
sVhighest
p1238
I1921
sVmoon
p1239
I2107
sVexpressing
p1240
I2016
sVmoderate
p1241
I1683
sVknife
p1242
I863
sVconsidering
p1243
I836
sVwelcome
p1244
I1594
sVarrow
p1245
I2218
sVbusiness
p1246
I518
sVbroken
p1247
I571
sVthrow
p1248
I908
sVon
p1249
I20
sVsubdued
p1250
I1912
sVoh
p1251
I108
sVof
p1252
I9
sVviolence
p1253
I1974
sVshrimp
p1254
I2350
sVchop
p1255
I1988
sVboldly
p1256
I2439
sVjourney
p1257
I2352
sVstand
p1258
I582
sVknave
p1259
I417
sVact
p1260
I2177
sVmixed
p1261
I1108
sVou
p1262
I1626
sVor
p1263
I57
sVimitated
p1264
I2497
sVquietly
p1265
I670
sVappealed
p1266
I2213
sVburning
p1267
I1467
sVtrot
p1268
I2022
sVspreading
p1269
I2515
sVlifted
p1270
I2291
sVlegged
p1271
I1089
sVrising
p1272
I1686
sVdreaming
p1273
I2531
sVengland
p1274
I2342
sVhappening
p1275
I2041
sVshrinking
p1276
I732
sVyour
p1277
I73
sVher
p1278
I17
sVthere
p1279
I40
sVcats
p1280
I288
sVlow
p1281
I245
sVjaws
p1282
I1131
sVattends
p1283
I2197
sVmercia
p1284
I1169
sVfish
p1285
I465
sVtight
p1286
I2010
sVmischief
p1287
I2500
sVjug
p1288
I2100
sVwits
p1289
I1938
sVland
p1290
I2334
sVmice
p1291
I701
sVtrying
p1292
I264
sVwith
p1293
I22
sVfeather
p1294
I2238
sVlonger
p1295
I854
sVrush
p1296
I1229
sVwaste
p1297
I2070
sVarranged
p1298
I1814
sVtiptoe
p1299
I1239
sVtones
p1300
I1424
sVconqueror
p1301
I1143
sVgrass
p1302
I783
sVagree
p1303
I1399
sVgone
p1304
I302
sVhated
p1305
I1639
sVfright
p1306
I1146
sVtaste
p1307
I1107
sVcertain
p1308
I864
sVam
p1309
I232
sVdeep
p1310
I479
sVfellow
p1311
I773
sVas
p1312
I16
sVbawled
p1313
I2078
sVat
p1314
I19
sVwatched
p1315
I1405
sVhorse
p1316
I1830
sVtremble
p1317
I2250
sVagain
p1318
I52
sVrubbed
p1319
I2265
sVidiot
p1320
I2144
sVroses
p1321
I1021
sVyou
p1322
I11
sVpuppy
p1323
I520
sVpoor
p1324
I169
sVoneself
p1325
I2196
sVinquired
p1326
I2284
sVuncorked
p1327
I1763
sVtime
p1328
I62
sVwhiskers
p1329
I853
sVwhistling
p1330
I1962
sVwaving
p1331
I676
sVbrandy
p1332
I1805
sVimportant
p1333
I513
sVbrass
p1334
I1753
sVsneeze
p1335
I1294
sVpool
p1336
I340
sVapplause
p1337
I2455
sVwife
p1338
I1879
sVsobbing
p1339
I1009
sVtricks
p1340
I1842
sVsharks
p1341
I2371
sVhaving
p1342
I349
sVstrings
p1343
I2451
sVgrowling
p1344
I2040
sVall
p1345
I21
sVsnout
p1346
I2017
sVconsider
p1347
I816
sVpointing
p1348
I749
sVcaused
p1349
I1187
sVmonth
p1350
I1336
sVdish
p1351
I796
sVfollow
p1352
I1268
sVchildren
p1353
I364
sVconger
p1354
I2304
sVdreadful
p1355
I1287
sVravens
p1356
I2058
sVchain
p1357
I1461
sVhunting
p1358
I947
sVencourage
p1359
I2435
sVlaughing
p1360
I1378
sVto
p1361
I4
sVtail
p1362
I401
sVcrimson
p1363
I1369
sVsmile
p1364
I1178
sVsound
p1365
I698
sVwoman
p1366
I1209
sVworse
p1367
I898
sVsitting
p1368
I348
sVvery
p1369
I30
sVfat
p1370
I1866
sVfan
p1371
I369
sVminded
p1372
I1985
sVhatching
p1373
I1917
sVfall
p1374
I481
sVsoles
p1375
I2348
sVwashing
p1376
I904
sVlist
p1377
I1059
sVjoined
p1378
I938
sVlarge
p1379
I138
sVsang
p1380
I1305
sVsand
p1381
I1609
sVsmall
p1382
I360
sVfamiliarly
p1383
I1658
sVquicker
p1384
I1730
sVrats
p1385
I1649
sVten
p1386
I550
sVtea
p1387
I208
sVpast
p1388
I840
sVrate
p1389
I392
sVpass
p1390
I2407
sVfurther
p1391
I867
sVcreatures
p1392
I373
sVgrinning
p1393
I1971
sVwhat
p1394
I31
sVstood
p1395
I516
sVdarkness
p1396
I1577
sVclock
p1397
I677
sVdeeply
p1398
I714
sVstool
p1399
I1966
sVstoop
p1400
I1205
sVnorthumbria
p1401
I1170
sVnurse
p1402
I905
sVhasn
p1403
I1394
sVfull
p1404
I573
sVma
p1405
I848
sVloose
p1406
I1799
sVanswers
p1407
I2071
sVhours
p1408
I801
sVshouldn
p1409
I662
sVaffectionately
p1410
I2221
sVdirections
p1411
I881
sVhandwriting
p1412
I2495
sVsearch
p1413
I2209
sVtortoise
p1414
I1040
sVdifficulty
p1415
I781
sVstretching
p1416
I1235
sVmemorandum
p1417
I2432
sVsoldier
p1418
I2404
sVmurdering
p1419
I2079
sVnarrow
p1420
I1133
sVfollowed
p1421
I433
sVfamily
p1422
I1638
sVturkey
p1423
I1534
sVsuddenly
p1424
I282
sVclapping
p1425
I2502
sVvii
p1426
I2051
sVusurpation
p1427
I1671
sVhouses
p1428
I1613
sVput
p1429
I147
sVtoys
p1430
I1597
sVthatched
p1431
I2049
sVreadily
p1432
I2064
sVeye
p1433
I497
sVtakes
p1434
I1300
sVinjure
p1435
I1863
sVfaint
p1436
I1837
sVtwo
p1437
I123
sVsplash
p1438
I1603
sVtaken
p1439
I793
sVweren
p1440
I2216
sVmore
p1441
I103
sVflat
p1442
I1363
sVwretched
p1443
I1254
sVdoor
p1444
I153
sVknows
p1445
I1123
sVcompany
p1446
I2260
sVstick
p1447
I782
sVbroke
p1448
I1262
sVparticular
p1449
I757
sVknown
p1450
I1659
sVhurry
p1451
I332
sVproducing
p1452
I1947
sVglad
p1453
I330
sVcunning
p1454
I1723
sVgazing
p1455
I2488
sVnone
p1456
I785
sVhour
p1457
I1180
sVsulkily
p1458
I1355
sVoffended
p1459
I371
sVremain
p1460
I2437
sVpressing
p1461
I1767
sVnine
p1462
I623
sVlearn
p1463
I507
sVknocked
p1464
I1950
sVfurrows
p1465
I2166
sVhistory
p1466
I510
sVbeautiful
p1467
I304
sVshark
p1468
I2368
sVfeebly
p1469
I1817
sVgravely
p1470
I922
sVrustled
p1471
I2536
sVshare
p1472
I2380
sVsense
p1473
I964
sVsharp
p1474
I576
sVdoubling
p1475
I2008
sVpresently
p1476
I1082
sVneeds
p1477
I1923
sVcourt
p1478
I220
sVrather
p1479
I176
sVcomfort
p1480
I1778
sVmagpie
p1481
I1738
sVmaps
p1482
I1473
sVoccasionally
p1483
I1968
sVfootman
p1484
I280
sVcreature
p1485
I805
sVskurried
p1486
I1576
sVtried
p1487
I205
sVrude
p1488
I1332
sVadvice
p1489
I1112
sVpurring
p1490
I1150
sVcoming
p1491
I386
sVgardeners
p1492
I470
sVpleaded
p1493
I936
sVhedgehogs
p1494
I1033
sVa
p1495
I5
sVshort
p1496
I752
sVcrowded
p1497
I644
sVloud
p1498
I575
sVpaw
p1499
I967
sVeats
p1500
I1554
sVshore
p1501
I740
sVshade
p1502
I2255
sVbanks
p1503
I1914
sVpleasure
p1504
I1061
sVdream
p1505
I486
sVplaying
p1506
I1113
sVreplied
p1507
I160
sVhelp
p1508
I399
sVincessantly
p1509
I1860
sVsoon
p1510
I177
sVheld
p1511
I779
sVpaper
p1512
I712
sVthrough
p1513
I260
sVexistence
p1514
I1601
sVsmiling
p1515
I1130
sVcheated
p1516
I1547
sVits
p1517
I80
sVroots
p1518
I1272
sVfanning
p1519
I1578
sVrapidly
p1520
I1132
sVforwards
p1521
I1834
sVoverhead
p1522
I1501
sVpray
p1523
I977
sVbuttercup
p1524
I1839
sVactually
p1525
I1465
sVlate
p1526
I538
sVabsence
p1527
I2254
sVparts
p1528
I2183
sVspeaker
p1529
I2447
sVmight
p1530
I161
sVarguments
p1531
I2215
sVwouldn
p1532
I284
sVevening
p1533
I686
sVsomebody
p1534
I480
sVunrolled
p1535
I1379
sVye
p1536
I1807
sVnoticing
p1537
I2140
sVfoot
p1538
I367
sVexecutions
p1539
I1403
sVmystery
p1540
I1413
sVeasily
p1541
I937
sValways
p1542
I298
sVrattle
p1543
I2539
sVfluttered
p1544
I2528
sVsomeone
p1545
I2192
sVstopped
p1546
I956
sVdie
p1547
I2477
sVfound
p1548
I141
sVrepeating
p1549
I997
sVpleasanter
p1550
I1774
sVheavy
p1551
I1408
sVharm
p1552
I1620
sVbegged
p1553
I1717
sVupstairs
p1554
I1756
sVhouse
p1555
I214
sVhare
p1556
I149
sVhard
p1557
I437
sVidea
p1558
I242
sVaccidentally
p1559
I2474
sVduchess
p1560
I116
sVscratching
p1561
I1803
sVreally
p1562
I291
sVanxious
p1563
I1038
sVdears
p1564
I880
sVflower
p1565
I1361
sVmissed
p1566
I1308
sVwondered
p1567
I1464
sVrearing
p1568
I1891
sVsuet
p1569
I1875
sVsince
p1570
I758
sVpigeon
p1571
I323
sVtrusts
p1572
I2508
sVsnappishly
p1573
I1733
sVpun
p1574
I2523
sVcrouched
p1575
I1934
sVdisagree
p1576
I1526
sVguess
p1577
I896
sVpleasant
p1578
I2222
sVextraordinary
p1579
I1283
sVreason
p1580
I409
sVimagine
p1581
I1400
sVask
p1582
I331
sVrises
p1583
I2370
sVbeginning
p1584
I255
sVthrown
p1585
I2345
sVpairs
p1586
I1761
sVcurtsey
p1587
I1492
sVterribly
p1588
I1820
sVexpecting
p1589
I877
sVw
p1590
I1754
sVdaisy
p1591
I1460
sVfallen
p1592
I695
sVporpoise
p1593
I822
sVslipped
p1594
I899
sVfeel
p1595
I419
sVdinn
p1596
I1420
sVknocking
p1597
I950
sVnumber
p1598
I638
sVfancy
p1599
I483
sVfeet
p1600
I204
sVdone
p1601
I250
sVshilling
p1602
I1872
sVmiss
p1603
I700
sVstory
p1604
I452
sVheads
p1605
I354
sVtwenty
p1606
I889
sVleast
p1607
I408
sVpaint
p1608
I2119
sVwonderful
p1609
I1454
sVpassed
p1610
I602
sVhundred
p1611
I1646
sVrecovered
p1612
I1414
sVbowed
p1613
I753
sVrelieved
p1614
I2021
sVuncommonly
p1615
I1865
sVimmediate
p1616
I1689
sVsensation
p1617
I1194
sVluckily
p1618
I1185
sVpart
p1619
I1422
sVbelieve
p1620
I403
sVstairs
p1621
I841
sVtraps
p1622
I2106
sVking
p1623
I72
sVkind
p1624
I501
sVgrew
p1625
I1773
sVkindly
p1626
I1419
sVbag
p1627
I2449
sVdouble
p1628
I2169
sVgrey
p1629
I1868
sVyouth
p1630
I583
sVnevertheless
p1631
I1762
sVstalk
p1632
I1902
sVtreated
p1633
I2029
sVdeclare
p1634
I1134
sVexecutioner
p1635
I594
sVpicked
p1636
I969
sVdainties
p1637
I2392
sVlivery
p1638
I989
sVmurder
p1639
I2014
sVfading
p1640
I2219
sVsell
p1641
I1248
sVlie
p1642
I1371
sVdancing
p1643
I1417
sVcommotion
p1644
I1650
sVofficers
p1645
I828
sVlit
p1646
I1503
sValso
p1647
I1310
sVbreeze
p1648
I2397
sVfinding
p1649
I866
sVrelief
p1650
I1410
sVplay
p1651
I441
sVadded
p1652
I187
sVreality
p1653
I2545
sVeggs
p1654
I674
sVreach
p1655
I716
sVmost
p1656
I461
sVhopeless
p1657
I1567
sVplan
p1658
I780
sVeaten
p1659
I1523
sVnothing
p1660
I134
sVextremely
p1661
I1311
sVoyster
p1662
I1735
sVmineral
p1663
I2240
sVclear
p1664
I1144
sVsometimes
p1665
I610
sVclean
p1666
I2098
sVdaresay
p1667
I1625
sVlying
p1668
I434
sVugh
p1669
I1171
sVlanguid
p1670
I1846
sVfond
p1671
I719
sVidiotic
p1672
I1964
sVcarefully
p1673
I942
sVcroqueting
p1674
I2211
sVfine
p1675
I1373
sVfind
p1676
I197
sVrocket
p1677
I1810
sVgrazed
p1678
I1957
sVjustice
p1679
I2408
sVnervous
p1680
I618
sVunwillingly
p1681
I2099
sVunhappy
p1682
I1207
sVpretty
p1683
I2336
sVcircle
p1684
I1700
sVshepherd
p1685
I2553
sVhis
p1686
I42
sVhit
p1687
I1226
sVmeanwhile
p1688
I2152
sVtrees
p1689
I519
sVfancying
p1690
I1758
sVwhistle
p1691
I1819
sVcourage
p1692
I999
sVhid
p1693
I2310
sVpretending
p1694
I1548
sVshared
p1695
I2540
sVhim
p1696
I115
sVchimney
p1697
I572
sVdistraction
p1698
I2289
sVcry
p1699
I883
sVdoubled
p1700
I2182
sVgloves
p1701
I341
sVcommon
p1702
I1555
sVx
p1703
I2316
sVengraved
p1704
I1755
sVnibbled
p1705
I1263
sVwrote
p1706
I1058
sVset
p1707
I268
sVsignify
p1708
I1583
sVthrowing
p1709
I1296
sVsee
p1710
I66
sVhoarsely
p1711
I1836
sVare
p1712
I88
sVsea
p1713
I273
sVclose
p1714
I283
sVbark
p1715
I1234
sVarm
p1716
I253
sVfeared
p1717
I1862
sVspirited
p1718
I1744
sVlearnt
p1719
I1078
sVlastly
p1720
I2560
sVguinea
p1721
I578
sVwow
p1722
I589
sVplease
p1723
I207
sVsmallest
p1724
I1233
sVvarious
p1725
I1742
sVguilt
p1726
I2503
sVarrum
p1727
I1786
sVkneel
p1728
I1770
sVmeal
p1729
I2541
sVknowing
p1730
I1162
sVlatin
p1731
I1622
sVtimidly
p1732
I412
sVvanishing
p1733
I2046
sVboth
p1734
I279
sVc
p1735
I1719
sVlast
p1736
I140
sVriddles
p1737
I1334
sVdismay
p1738
I2475
sVbecame
p1739
I1318
sVforgotten
p1740
I548
sVwhole
p1741
I300
sVfinds
p1742
I1751
sVtittered
p1743
I1695
sVsentenced
p1744
I2259
sVliked
p1745
I567
sVmajesty
p1746
I324
sVdrunk
p1747
I1204
sVsimple
p1748
I615
sVsweet
p1749
I2229
sVmanners
p1750
I1972
sVwhatever
p1751
I955
sVhollow
p1752
I2271
sValone
p1753
I731
sVunfolded
p1754
I1245
sVsimply
p1755
I926
sVlikes
p1756
I2203
sVsupple
p1757
I1870
sVpatiently
p1758
I1255
sVacceptance
p1759
I1710
sVthimble
p1760
I751
sVwhom
p1761
I2258
sVsecret
p1762
I2511
sVdropping
p1763
I2335
sVcollected
p1764
I1386
sVmeeting
p1765
I1687
sVempty
p1766
I1480
sVresting
p1767
I1327
sVlived
p1768
I1018
sVgay
p1769
I2365
sVsending
p1770
I1117
sVfire
p1771
I736
sVada
p1772
I1580
sVremark
p1773
I382
sVelse
p1774
I310
sVunderstand
p1775
I559
sVmournful
p1776
I2080
sVfurrow
p1777
I2180
sVstolen
p1778
I2431
sVfur
p1779
I912
sVlook
p1780
I158
sVraw
p1781
I1932
sVsolid
p1782
I1506
sVstraight
p1783
I1069
sVbill
p1784
I229
sVrope
p1785
I1798
sVforgetting
p1786
I957
sVwhile
p1787
I179
sVpressed
p1788
I919
sVleaning
p1789
I1290
sVfun
p1790
I1012
sVful
p1791
I2394
sVpack
p1792
I681
sVswim
p1793
I657
sVhoping
p1794
I859
sVviolently
p1795
I724
sVitself
p1796
I257
sVbeautifully
p1797
I1098
sVready
p1798
I436
sVkings
p1799
I2137
sVfunny
p1800
I846
sVrighthand
p1801
I1939
sVchoking
p1802
I2543
sVgrant
p1803
I2035
sVbelong
p1804
I1507
sVshorter
p1805
I1260
sVread
p1806
I333
sVgrand
p1807
I845
sVadvise
p1808
I1544
sVshan
p1809
I552
sVused
p1810
I297
sVsnail
p1811
I1047
sVyesterday
p1812
I887
sVdesks
p1813
I2059
sVpatriotic
p1814
I1676
sVmoment
p1815
I146
sVflown
p1816
I1910
sVcucumber
p1817
I1215
sVpurpose
p1818
I2353
sVuneasily
p1819
I1337
sVtimid
p1820
I886
sVlower
p1821
I2457
sVolder
p1822
I1161
sVperson
p1823
I720
sVedge
p1824
I970
sVgrins
p1825
I1973
sVclasped
p1826
I2533
sVlobsters
p1827
I531
sVpolitely
p1828
I565
sVmorsel
p1829
I1898
sVshape
p1830
I1702
sVquestions
p1831
I786
sVusing
p1832
I1325
sVlove
p1833
I882
sVcut
p1834
I616
sVcur
p1835
I1722
sVcup
p1836
I1339
sVtreacle
p1837
I528
sVkissed
p1838
I2529
sVeager
p1839
I1026
sVgrin
p1840
I557
sVcrying
p1841
I1111
sVremaining
p1842
I2154
sVsurprised
p1843
I498
sVtillie
p1844
I2088
sVaustralia
p1845
I1491
sVmarch
p1846
I137
sVshowing
p1847
I1079
sVmatters
p1848
I1276
sVgame
p1849
I293
sVentangled
p1850
I1277
sVbit
p1851
I233
sVwings
p1852
I1911
sVahem
p1853
I1664
sVknock
p1854
I1953
sVd
p1855
I159
sVshaped
p1856
I1007
sVfollows
p1857
I1050
sVchorus
p1858
I568
sVeel
p1859
I1251
sVprovoking
p1860
I2176
sVfoolish
p1861
I1779
sVwalrus
p1862
I1618
sVoften
p1863
I673
sVobliged
p1864
I1049
sVlodging
p1865
I1612
sVsome
p1866
I95
sVback
p1867
I128
sVunderstood
p1868
I2456
sVlips
p1869
I1764
sVmarmalade
p1870
I1478
sVhurriedly
p1871
I1175
sVsight
p1872
I357
sVwonderland
p1873
I832
sVcandle
p1874
I868
sVcapering
p1875
I2332
sVpale
p1876
I739
sVourselves
p1877
I2510
sVsaucer
p1878
I1495
sVsavage
p1879
I723
sVscale
p1880
I1592
sVtwinkle
p1881
I469
sVpet
p1882
I1737
sVshall
p1883
I175
sVlark
p1884
I2366
sVt
p1885
I18
sVbe
p1886
I28
sVrun
p1887
I762
sVremembered
p1888
I620
sVsalmon
p1889
I2325
sVrefused
p1890
I1661
sVnowhere
p1891
I1199
sVache
p1892
I2464
sVby
p1893
I76
sVcomfits
p1894
I1184
sVpassionate
p1895
I1631
sVbristling
p1896
I1637
sVanything
p1897
I200
sVwore
p1898
I2409
sVprove
p1899
I2498
sVstraightened
p1900
I2173
sVnaturedly
p1901
I1747
sVshiny
p1902
I2346
sVdaisies
p1903
I1462
sVsilence
p1904
I278
sVundoing
p1905
I2012
sVplenty
p1906
I1072
sVinto
p1907
I65
sVwithin
p1908
I1284
sVnonsense
p1909
I502
sVjurymen
p1910
I830
sVpiteous
p1911
I1893
sVframes
p1912
I1791
sVlesson
p1913
I902
sVsignifies
p1914
I2483
sVsad
p1915
I931
sVquestion
p1916
I225
sVfast
p1917
I808
sVconsultation
p1918
I1657
sVprettier
p1919
I2294
sVsuit
p1920
I944
sVhimself
p1921
I554
sVan
p1922
I82
sVinches
p1923
I545
sVmemory
p1924
I2108
sVhoped
p1925
I1760
sVauthority
p1926
I1163
sVatom
p1927
I1453
sVupright
p1928
I1892
sVline
p1929
I1303
sVdull
p1930
I878
sVraising
p1931
I1922
sVpeeped
p1932
I834
sVdirected
p1933
I1449
sVhush
p1934
I1031
sVup
p1935
I39
sVus
p1936
I276
sVcautiously
p1937
I1014
sVcheeks
p1938
I2320
sVcalled
p1939
I251
sVyelled
p1940
I2333
sVordered
p1941
I764
sVroared
p1942
I2160
sVdoesn
p1943
I239
sVskimming
p1944
I1956
sVgraceful
p1945
I1905
sVdenying
p1946
I1928
sVpuzzling
p1947
I728
sVbacks
p1948
I2147
sVoccasional
p1949
I2272
sVornamented
p1950
I1366
sVnay
p1951
I1800
sVmock
p1952
I85
sVnice
p1953
I540
sVbrushing
p1954
I2527
sVdraw
p1955
I522
sVmustard
p1956
I1039
sVfavourite
p1957
I2248
sVfaintly
p1958
I2396
sVwilliam
p1959
I443
sVmeaning
p1960
I448
sVsmiled
p1961
I1372
sVfishes
p1962
I1595
sVsong
p1963
I526
sVsides
p1964
I691
sVago
p1965
I1145
sVmiles
p1966
I842
sVe
p1967
I596
sVage
p1968
I725
sVwalked
p1969
I358
sVscream
p1970
I1374
sVimpatient
p1971
I2354
sVneighbouring
p1972
I2538
sVfitted
p1973
I1511
sVfar
p1974
I295
sVsounded
p1975
I631
sVonce
p1976
I135
sVwhiting
p1977
I472
sVsplashing
p1978
I1140
sVsixpence
p1979
I2512
sVgo
p1980
I99
sVcupboards
p1981
I1073
sVseemed
p1982
I164
sVpeering
p1983
I1815
sVyoung
p1984
I655
sVsend
p1985
I2181
sVpleasing
p1986
I1916
sVsent
p1987
I1437
sVretire
p1988
I2330
sVgarden
p1989
I236
sVflinging
p1990
I2001
sVoutside
p1991
I766
sVpanting
p1992
I1181
sVsqueaked
p1993
I2419
sVspoon
p1994
I1342
sVputting
p1995
I895
sVrattling
p1996
I1225
sVtelling
p1997
I1275
sVdrinking
p1998
I2091
sVcontinued
p1999
I402
sVseverely
p2000
I718
sVmagic
p2001
I1772
sVrespectful
p2002
I2489
sVstiff
p2003
I2307
sVshock
p2004
I2484
sVtry
p2005
I320
sVtunnel
p2006
I1471
sVrace
p2007
I564
sVverdict
p2008
I827
sVinsolence
p2009
I1684
sVconcluded
p2010
I1214
sVsmaller
p2011
I874
sVuncomfortably
p2012
I2233
sVprocession
p2013
I679
sVboots
p2014
I722
sVuncomfortable
p2015
I744
sVodd
p2016
I1563
sVdiamonds
p2017
I2134
sVgiving
p2018
I1228
sVsqueeze
p2019
I2438
sVwaiting
p2020
I394
sVexperiment
p2021
I1397
sVcapital
p2022
I730
sVbird
p2023
I1193
sVpoky
p2024
I1596
sVbody
p2025
I1377
sVtoast
p2026
I1537
sVmelancholy
p2027
I566
sVled
p2028
I710
sVchose
p2029
I1256
sVupsetting
p2030
I2470
sVbeasts
p2031
I1101
sVfifteenth
p2032
I2424
sVbelieved
p2033
I2544
sVlet
p2034
I191
sVsink
p2035
I2276
sVothers
p2036
I515
sVslates
p2037
I473
sVsing
p2038
I592
sVinvented
p2039
I2493
sVfifteen
p2040
I1509
sVsettling
p2041
I2206
sVvinegar
p2042
I2224
sVgreat
p2043
I126
sVuneasy
p2044
I2187
sVinvolved
p2045
I2506
sVlarger
p2046
I491
sVleaving
p2047
I2264
sVengine
p2048
I2007
sVsimpleton
p2049
I2296
sVopinion
p2050
I2093
sVclimb
p2051
I1542
sVbehead
p2052
I2462
sVmakes
p2053
I338
sVwig
p2054
I1431
sVexamining
p2055
I2153
sVapple
p2056
I1532
sVwin
p2057
I2200
sVdisobey
p2058
I2375
sVmanage
p2059
I484
sVdormouse
p2060
I125
sVaddressed
p2061
I1241
sVnames
p2062
I1350
sVduck
p2063
I742
sVdoubtfully
p2064
I1273
sVnibbling
p2065
I987
sVsinging
p2066
I1302
sVstanding
p2067
I2402
sVuse
p2068
I212
sVcheered
p2069
I924
sVfrom
p2070
I133
sVarchbishop
p2071
I1173
sVprocessions
p2072
I2142
sVfrog
p2073
I916
sVnext
p2074
I152
sVfew
p2075
I393
sVdoubt
p2076
I776
sVcrab
p2077
I940
sVthemselves
p2078
I1025
sVeaglet
p2079
I910
sVdeepest
p2080
I1926
sVsort
p2081
I201
sVpencil
p2082
I1432
sVclever
p2083
I1252
sVrich
p2084
I2390
sVstarted
p2085
I1067
sVinclined
p2086
I1698
sVoccurred
p2087
I1065
sVcarrying
p2088
I1364
sVprizes
p2089
I647
sVrabbit
p2090
I92
sVbaby
p2091
I281
sViii
p2092
I1652
sVannoy
p2093
I1996
sVaccount
p2094
I2191
sVballs
p2095
I2167
sVanimals
p2096
I741
sVpanted
p2097
I2395
sVheard
p2098
I154
sVthis
p2099
I32
sVwhen
p2100
I56
sVshrieked
p2101
I2461
sVpour
p2102
I1589
sVcurtseying
p2103
I1493
sVarches
p2104
I817
sVanywhere
p2105
I2351
sVcrossed
p2106
I891
sVthin
p2107
I2443
sVmeet
p2108
I1176
sVfetch
p2109
I511
sVbend
p2110
I1191
sVbent
p2111
I1693
sVreeds
p2112
I2548
sVplate
p2113
I949
sVferrets
p2114
I1198
sVlock
p2115
I1510
sVdripping
p2116
I1656
sVpieces
p2117
I986
sVhigh
p2118
I235
sVpulling
p2119
I1792
sVsomething
p2120
I218
sVbones
p2121
I1876
sVpaws
p2122
I737
sVtrumpet
p2123
I1055
sVcontempt
p2124
I1927
sVsir
p2125
I503
sVcurving
p2126
I1904
sVsit
p2127
I447
sVonions
p2128
I2125
sVsix
p2129
I1124
sVdelay
p2130
I2256
sVcourtiers
p2131
I1365
sVanimal
p2132
I1147
sVinstead
p2133
I1010
sVfuriously
p2134
I2519
sVpretexts
p2135
I1743
sVfarm
p2136
I2556
sVwatch
p2137
I421
sVwaters
p2138
I1590
sVthunderstorm
p2139
I2251
sVtied
p2140
I2450
sVdoze
p2141
I2104
sVpigs
p2142
I579
sVmen
p2143
I2414
sVminding
p2144
I2235
sVmultiplication
p2145
I1582
sVterrier
p2146
I1643
sVpocket
p2147
I477
sVdrop
p2148
I1481
sVnoises
p2149
I2554
sVlines
p2150
I2323
sVinterrupted
p2151
I416
sVtrembling
p2152
I562
sVchief
p2153
I2170
sVallow
p2154
I915
sVcrawling
p2155
I2178
sVfurious
p2156
I2186
sVflapper
p2157
I2317
sVbathing
p2158
I1607
sVclosely
p2159
I1896
sVreeling
p2160
I2285
sVmove
p2161
I918
sVdoubtful
p2162
I1370
sVproduced
p2163
I1811
sVindignantly
p2164
I792
sVll
p2165
I81
sVbanquet
p2166
I2386
sVlatitude
p2167
I1080
sVbye
p2168
I1116
sVcrash
p2169
I958
sVpractice
p2170
I1486
sVmuddle
p2171
I2418
sVflew
p2172
I1984
sVcutting
p2173
I2054
sVkiss
p2174
I2202
sVhands
p2175
I321
sVfront
p2176
I1324
sVday
p2177
I155
sVsneezed
p2178
I1967
sVdelightful
p2179
I1415
sVtureen
p2180
I2391
sVtruth
p2181
I1498
sVaccounts
p2182
I2072
sVsneezes
p2183
I1304
sVshaking
p2184
I979
sVnormans
p2185
I1685
sVbrush
p2186
I2127
sVfootmen
p2187
I1944
sVdoing
p2188
I658
sVglobe
p2189
I2473
sVbooks
p2190
I1210
sVsands
p2191
I2364
sVthirteen
p2192
I1581
sVmeasure
p2193
I1599
sVour
p2194
I445
sVwander
p2195
I1515
sVwitness
p2196
I384
sVout
p2197
I35
sVsobs
p2198
I821
sVuglifying
p2199
I2292
sVhedges
p2200
I1915
sVhatters
p2201
I2042
sVeyelids
p2202
I2360
sVbarley
p2203
I2228
sVcause
p2204
I897
sVred
p2205
I862
sVoblong
p2206
I2132
sVshut
p2207
I614
sVundo
p2208
I1727
sVattending
p2209
I935
sVcompletely
p2210
I1748
sVyard
p2211
I2557
sVgallons
p2212
I1569
sVcould
p2213
I58
sVrustling
p2214
I2546
sVtimes
p2215
I555
sVconversation
p2216
I350
sVlength
p2217
I1900
sVtrickling
p2218
I2522
sVsorrowful
p2219
I1157
sVclamour
p2220
I2555
sVplainly
p2221
I1541
sVblown
p2222
I1540
sVpitied
p2223
I2270
sVsoothing
p2224
I1632
sVfits
p2225
I2518
sVhowled
p2226
I1998
sVblows
p2227
I1978
sVancient
p2228
I2301
sVsadly
p2229
I613
sVordering
p2230
I1203
sVvulgar
p2231
I1641
sVtheir
p2232
I91
sVperfectly
p2233
I784
sVsixteenth
p2234
I2425
sVexplanation
p2235
I1315
sVexactly
p2236
I451
sVnatural
p2237
I690
sVherself
p2238
I53
sVhaven
p2239
I460
sVneck
p2240
I493
sVbother
p2241
I1990
sVyawned
p2242
I1257
sVbeg
p2243
I444
sVflashed
p2244
I1466
sVbee
p2245
I1859
sVbeautify
p2246
I2293
sVstupidly
p2247
I1949
sVlisteners
p2248
I2357
sVdecided
p2249
I869
sVresult
p2250
I1903
sVthistle
p2251
I1237
sVtidy
p2252
I1759
sVgently
p2253
I894
sVcomfortable
p2254
I2411
sVtide
p2255
I2369
sVcomfortably
p2256
I2172
sVhave
p2257
I55
sVthroat
p2258
I1195
sVwearily
p2259
I2069
sVclearly
p2260
I1849
sVafraid
p2261
I311
sVdishes
p2262
I1298
sVbough
p2263
I2025
sVable
p2264
I1559
sVinstance
p2265
I996
sVwhich
p2266
I101
sVblades
p2267
I1843
sVunless
p2268
I1387
sVcentre
p2269
I1484
sVwho
p2270
I70
sVbut
p2271
I24
sVprisoner
p2272
I1448
sValarmed
p2273
I2083
sVwhy
p2274
I120
sVdeny
p2275
I1440
sVflappers
p2276
I2300
sVgather
p2277
I2566
sVupset
p2278
I1019
sVface
p2279
I247
sVlooked
p2280
I109
sVabsurd
p2281
I1186
sVpictures
p2282
I688
sVpainting
p2283
I1362
sVfact
p2284
I432
sVaffair
p2285
I2507
sVpleases
p2286
I2000
sVbring
p2287
I872
sVplanning
p2288
I1561
sVsoldiers
p2289
I383
sVfear
p2290
I692
sVpleased
p2291
I525
sVchanced
p2292
I2129
sVnearer
p2293
I640
sVpause
p2294
I1293
sVknowledge
p2295
I844
sVhadn
p2296
I442
sVjaw
p2297
I1882
sVjar
p2298
I1075
sVshould
p2299
I168
sVbuttons
p2300
I2363
sVwon
p2301
I173
sVfumbled
p2302
I2465
sVhandsome
p2303
I2023
sVhope
p2304
I849
sVindignant
p2305
I2415
sVmeant
p2306
I675
sVprosecute
p2307
I1720
sVlistened
p2308
I2535
sVmeans
p2309
I645
sVbeat
p2310
I803
sVbeau
p2311
I824
sVmuttering
p2312
I885
sVbear
p2313
I1218
sVhearthrug
p2314
I1565
sVwords
p2315
I193
sVbeak
p2316
I1877
sVbrain
p2317
I1864
sVshy
p2318
I1801
sVcalling
p2319
I1705
sVstuff
p2320
I787
sVshe
p2321
I7
sVrapped
p2322
I1942
sVfixed
p2323
I1662
sVshedding
p2324
I1568
sVframe
p2325
I1784
sVcrossly
p2326
I1678
sVmentioned
p2327
I945
sVdesperate
p2328
I1575
sVforepaws
p2329
I2337
sVcloser
p2330
I2232
sVcoils
p2331
I2306
sVpattern
p2332
I2146
sVdrawling
p2333
I1041
sVwritten
p2334
I541
sVdifficulties
p2335
I2207
sVclosed
p2336
I1360
sVneither
p2337
I1312
sVbed
p2338
I1741
sVlabelled
p2339
I1476
sVopening
p2340
I879
sVsorrow
p2341
I1407
sVkey
p2342
I391
sVprecious
p2343
I1981
sVstaring
p2344
I994
sVsharply
p2345
I717
sVshingle
p2346
I2338
sVtaking
p2347
I663
sVdoorway
p2348
I1516
sVfigures
p2349
I1992
sVswallow
p2350
I1897
sVotherwise
p2351
I795
sVwalk
p2352
I606
sVlaugh
p2353
I1712
sVtable
p2354
I216
sVseaography
p2355
I2303
sVthanked
p2356
I2340
sVimmense
p2357
I1899
sVpoured
p2358
I2066
sVslowly
p2359
I422
sVtreat
p2360
I2381
sVah
p2361
I629
sVcurtain
p2362
I1508
sVproposal
p2363
I2084
sVimprove
p2364
I1587
sVremedies
p2365
I1692
sVfield
p2366
I1468
sVshoulders
p2367
I711
sVmoved
p2368
I656
sVfarmer
p2369
I1645
sVneighbour
p2370
I2417
sVorange
p2371
I1477
sVfinished
p2372
I313
sVsmoking
p2373
I1240
sVgeneral
p2374
I900
sVpresent
p2375
I973
sVfender
p2376
I1566
sVholiday
p2377
I2313
sVappearance
p2378
I2189
sVexamine
p2379
I1442
sVwill
p2380
I139
sVriper
p2381
I2562
sVwild
p2382
I1100
sVadvisable
p2383
I1174
sVinstantly
p2384
I667
sVve
p2385
I111
sValmost
p2386
I549
sVvi
p2387
I1940
sVjelly
p2388
I2327
sVhelped
p2389
I2094
sVedgar
p2390
I1680
sVpartner
p2391
I2328
sVsits
p2392
I1634
sVtumbled
p2393
I1827
sVdenial
p2394
I1721
sVperhaps
p2395
I223
sVbegan
p2396
I78
sVcross
p2397
I913
sVbrightened
p2398
I1109
sVstrange
p2399
I632
sVtumbling
p2400
I1076
sVdigging
p2401
I734
sVlargest
p2402
I1557
sVparty
p2403
I374
sVglaring
p2404
I2148
sVtwelfth
p2405
I2314
sVdifficult
p2406
I1261
sVelbows
p2407
I2052
sVspell
p2408
I2416
sVdrink
p2409
I494
sVupon
p2410
I172
sVeffect
p2411
I953
sVbeast
p2412
I2149
sVintroduce
p2413
I1295
sVsisters
p2414
I1349
sVcollar
p2415
I2460
sVoff
p2416
I61
sVi
p2417
I8
sVdinah
p2418
I262
sVwell
p2419
I67
sVfighting
p2420
I2185
sVthought
p2421
I60
sVenglish
p2422
I551
sVposition
p2423
I1183
sVraving
p2424
I1320
sVdrawing
p2425
I2109
sVusual
p2426
I627
sVlest
p2427
I1757
sVtaller
p2428
I1259
sVbarking
p2429
I1835
sVcried
p2430
I203
sVless
p2431
I807
sVambition
p2432
I2288
sVcakes
p2433
I966
sVcries
p2434
I2552
sVdistant
p2435
I1269
sVparchment
p2436
I1430
sVpanther
p2437
I1053
sVdrive
p2438
I1289
sVsky
p2439
I666
sVreasons
p2440
I1951
sVother
p2441
I122
sVadoption
p2442
I1690
sVwet
p2443
I1160
sVearnestly
p2444
I1084
sVought
p2445
I258
sVthrone
p2446
I2400
sVkick
p2447
I962
sVraven
p2448
I2056
sVledge
p2449
I2268
sVwhispers
p2450
I1788
sVfive
p2451
I439
sVknow
p2452
I47
sVknot
p2453
I1192
sVdesk
p2454
I2057
sVimmediately
p2455
I971
sVaudibly
p2456
I1696
sVflamingo
p2457
I684
sVlike
p2458
I48
sVlost
p2459
I852
sVsizes
p2460
I1850
sVcrawled
p2461
I1894
sVchuckled
p2462
I2266
sVriddle
p2463
I2067
sVlose
p2464
I1732
sVbecome
p2465
I661
sVworks
p2466
I2061
sVsoft
p2467
I1636
sVbecause
p2468
I246
sValive
p2469
I1036
sVhair
p2470
I504
sVchoosing
p2471
I2103
sVproper
p2472
I1008
sVhome
p2473
I603
sVhappens
p2474
I621
sVest
p2475
I1627
sVesq
p2476
I1564
sVavoid
p2477
I1600
sVkettle
p2478
I1952
sVleap
p2479
I1629
sVdoes
p2480
I407
sVpassion
p2481
I909
sVsaucepan
p2482
I1983
sVbelt
p2483
I2362
sVchains
p2484
I2403
sVpepper
p2485
I464
sVnoise
p2486
I928
sVreaching
p2487
I1570
sVcontradicted
p2488
I1888
sVchoked
p2489
I929
sVcrust
p2490
I2377
sVtrials
p2491
I2453
sVgained
p2492
I2356
sVsister
p2493
I385
sVashamed
p2494
I1120
sVcarried
p2495
I800
sVgetting
p2496
I188
sVtray
p2497
I2077
sVcarrier
p2498
I1562
sVtongue
p2499
I756
sVintroduced
p2500
I2321
sVswimming
p2501
I1141
sVowl
p2502
I1052
sVown
p2503
I351
sVletters
p2504
I1520
sVscreamed
p2505
I791
sVguard
p2506
I2405
sVpromise
p2507
I2097
sVtiny
p2508
I707
sVquickly
p2509
I1433
sVcustard
p2510
I1530
sVknuckles
p2511
I1943
sVridge
p2512
I2179
sVrushed
p2513
I1824
sVrightly
p2514
I2413
sVnoticed
p2515
I424
sVspread
p2516
I893
sVmuch
p2517
I93
sVpowdered
p2518
I1945
sVfountains
p2519
I1095
sVrepeated
p2520
I380
sVhm
p2521
I2387
sVcontemptuously
p2522
I1243
sVear
p2523
I588
sVeat
p2524
I215
sVhe
p2525
I34
sVmade
p2526
I150
sVwise
p2527
I1099
sVplaces
p2528
I1375
sVwhether
p2529
I327
sVwish
p2530
I194
sVscroll
p2531
I1429
sVvariations
p2532
I1961
sVsigned
p2533
I1450
sVplaced
p2534
I1703
sVbelow
p2535
I961
sVwoke
p2536
I2105
sVcake
p2537
I873
sVpiece
p2538
I569
sVminutes
p2539
I335
sVstirring
p2540
I1291
sVdiligently
p2541
I2486
sVrabbits
p2542
I1775
sV1865
p2543
I1458
sVwhisper
p2544
I930
sVpie
p2545
I1054
sVpig
p2546
I347
sVtwist
p2547
I1309
sVtempered
p2548
I1391
sVink
p2549
I2521
sVtrotting
p2550
I1121
sVgirl
p2551
I699
sVdressed
p2552
I1574
sVlately
p2553
I1517
sVbook
p2554
I325
sVbranch
p2555
I2043
sVsuppress
p2556
I2463
sVhippopotamus
p2557
I1619
sVconclusion
p2558
I1138
sVirons
p2559
I1976
sVrepeat
p2560
I506
sVstar
p2561
I2004
sVmuchness
p2562
I1020
sVstay
p2563
I634
sVrefreshments
p2564
I2406
sVchance
p2565
I763
sVteacups
p2566
I1455
sVfriends
p2567
I1103
sVgrunted
p2568
I806
sVyelp
p2569
I1823
sVtinkling
p2570
I2549
sVlasted
p2571
I1250
sVrule
p2572
I680
sVpictured
p2573
I2561
sVextras
p2574
I2279
sVelsie
p2575
I2086
sVlives
p2576
I794
sVtrims
p2577
I2361
sVbaked
p2578
I2359
ssS'oov_token'
p2579
NsS'char_level'
p2580
I00
sS'word_counts'
p2581
ccollections
OrderedDict
p2582
((lp2583
(lp2584
g1111
aI3607
aa(lp2585
g539
aI398
aa(lp2586
g404
aI7
aa(lp2587
g465
aI369
aa(lp2588
g1873
aI3
aa(lp2589
g1893
aI59
aa(lp2590
g332
aI1
aa(lp2591
g814
aI1
aa(lp2592
g2543
aI1
aa(lp2593
g581
aI12
aa(lp2594
g2417
aI545
aa(lp2595
g596
aI102
aa(lp2596
g501
aI1642
aa(lp2597
g2090
aI51
aa(lp2598
g107
aI5
aa(lp2599
g609
aI357
aa(lp2600
g1584
aI14
aa(lp2601
g1361
aI729
aa(lp2602
g1063
aI46
aa(lp2603
g1369
aI144
aa(lp2604
g43
aI7
aa(lp2605
g1252
aI514
aa(lp2606
g1368
aI10
aa(lp2607
g1278
aI248
aa(lp2608
g2493
aI9
aa(lp2609
g1249
aI193
aa(lp2610
g190
aI3
aa(lp2611
g997
aI872
aa(lp2612
g1342
aI10
aa(lp2613
g1660
aI34
aa(lp2614
g347
aI81
aa(lp2615
g1976
aI34
aa(lp2616
g1263
aI77
aa(lp2617
g364
aI5
aa(lp2618
g2321
aI553
aa(lp2619
g517
aI178
aa(lp2620
g1932
aI3
aa(lp2621
g1907
aI67
aa(lp2622
g2554
aI11
aa(lp2623
g1092
aI3
aa(lp2624
g2271
aI170
aa(lp2625
g460
aI595
aa(lp2626
g1183
aI90
aa(lp2627
g2282
aI4
aa(lp2628
g893
aI1
aa(lp2629
g1394
aI141
aa(lp2630
g459
aI108
aa(lp2631
g2068
aI18
aa(lp2632
g1495
aI632
aa(lp2633
g2421
aI74
aa(lp2634
g1185
aI26
aa(lp2635
g2216
aI10
aa(lp2636
g857
aI151
aa(lp2637
g1243
aI3
aa(lp2638
g2503
aI10
aa(lp2639
g296
aI11
aa(lp2640
g1312
aI263
aa(lp2641
g2419
aI63
aa(lp2642
g2213
aI77
aa(lp2643
g562
aI153
aa(lp2644
g139
aI7
aa(lp2645
g2177
aI29
aa(lp2646
g2526
aI30
aa(lp2647
g1595
aI8
aa(lp2648
g506
aI5
aa(lp2649
g1073
aI6
aa(lp2650
g2529
aI11
aa(lp2651
g1504
aI2
aa(lp2652
g805
aI8
aa(lp2653
g1591
aI1
aa(lp2654
g1357
aI1
aa(lp2655
g92
aI83
aa(lp2656
g1886
aI148
aa(lp2657
g29
aI4
aa(lp2658
g704
aI6
aa(lp2659
g2496
aI22
aa(lp2660
g1935
aI100
aa(lp2661
g397
aI2
aa(lp2662
g1903
aI1
aa(lp2663
g2100
aI79
aa(lp2664
g1424
aI13
aa(lp2665
g979
aI30
aa(lp2666
g1293
aI180
aa(lp2667
g823
aI1
aa(lp2668
g981
aI29
aa(lp2669
g293
aI16
aa(lp2670
g1714
aI13
aa(lp2671
g1279
aI99
aa(lp2672
g676
aI2
aa(lp2673
g984
aI315
aa(lp2674
g903
aI3
aa(lp2675
g712
aI63
aa(lp2676
g952
aI53
aa(lp2677
g2517
aI51
aa(lp2678
g2197
aI117
aa(lp2679
g982
aI56
aa(lp2680
g620
aI14
aa(lp2681
g1006
aI51
aa(lp2682
g1796
aI14
aa(lp2683
g1251
aI45
aa(lp2684
g555
aI29
aa(lp2685
g1883
aI25
aa(lp2686
g1526
aI6
aa(lp2687
g165
aI40
aa(lp2688
g1199
aI2
aa(lp2689
g2087
aI2
aa(lp2690
g2445
aI14
aa(lp2691
g2257
aI80
aa(lp2692
g1567
aI1
aa(lp2693
g1314
aI212
aa(lp2694
g2099
aI134
aa(lp2695
g1328
aI71
aa(lp2696
g1345
aI182
aa(lp2697
g1982
aI27
aa(lp2698
g940
aI55
aa(lp2699
g2237
aI4
aa(lp2700
g1525
aI1
aa(lp2701
g274
aI24
aa(lp2702
g2137
aI8
aa(lp2703
g1517
aI57
aa(lp2704
g613
aI2
aa(lp2705
g2147
aI7
aa(lp2706
g2280
aI45
aa(lp2707
g181
aI94
aa(lp2708
g919
aI11
aa(lp2709
g2085
aI2
aa(lp2710
g1600
aI19
aa(lp2711
g2244
aI1
aa(lp2712
g1093
aI5
aa(lp2713
g63
aI48
aa(lp2714
g168
aI38
aa(lp2715
g301
aI15
aa(lp2716
g1057
aI10
aa(lp2717
g1017
aI22
aa(lp2718
g1267
aI1
aa(lp2719
g151
aI5
aa(lp2720
g2366
aI1
aa(lp2721
g147
aI43
aa(lp2722
g825
aI1
aa(lp2723
g504
aI52
aa(lp2724
g1710
aI67
aa(lp2725
g1123
aI1
aa(lp2726
g1379
aI33
aa(lp2727
g26
aI16
aa(lp2728
g1069
aI2
aa(lp2729
g255
aI22
aa(lp2730
g1815
aI31
aa(lp2731
g201
aI83
aa(lp2732
g138
aI68
aa(lp2733
g1219
aI7
aa(lp2734
g1318
aI83
aa(lp2735
g1783
aI2
aa(lp2736
g2458
aI85
aa(lp2737
g2006
aI1
aa(lp2738
g1866
aI51
aa(lp2739
g1202
aI2
aa(lp2740
g900
aI145
aa(lp2741
g345
aI94
aa(lp2742
g451
aI1
aa(lp2743
g2238
aI83
aa(lp2744
g1548
aI32
aa(lp2745
g738
aI2
aa(lp2746
g1310
aI7
aa(lp2747
g660
aI6
aa(lp2748
g2359
aI8
aa(lp2749
g1906
aI2
aa(lp2750
g1780
aI29
aa(lp2751
g1084
aI18
aa(lp2752
g782
aI27
aa(lp2753
g924
aI8
aa(lp2754
g2074
aI30
aa(lp2755
g954
aI51
aa(lp2756
g1487
aI19
aa(lp2757
g472
aI27
aa(lp2758
g1491
aI9
aa(lp2759
g265
aI26
aa(lp2760
g1217
aI3
aa(lp2761
g1897
aI20
aa(lp2762
g1964
aI4
aa(lp2763
g2515
aI8
aa(lp2764
g187
aI152
aa(lp2765
g994
aI85
aa(lp2766
g740
aI3
aa(lp2767
g1981
aI2
aa(lp2768
g238
aI2
aa(lp2769
g65
aI51
aa(lp2770
g1008
aI14
aa(lp2771
g1482
aI1
aa(lp2772
g543
aI1
aa(lp2773
g2410
aI26
aa(lp2774
g1210
aI1
aa(lp2775
g2298
aI2
aa(lp2776
g2070
aI36
aa(lp2777
g189
aI104
aa(lp2778
g1610
aI5
aa(lp2779
g2339
aI1
aa(lp2780
g2371
aI1
aa(lp2781
g1870
aI1
aa(lp2782
g2043
aI39
aa(lp2783
g1113
aI1
aa(lp2784
g1766
aI1
aa(lp2785
g2148
aI1
aa(lp2786
g2290
aI4
aa(lp2787
g1099
aI1
aa(lp2788
g1534
aI7
aa(lp2789
g675
aI4
aa(lp2790
g1429
aI31
aa(lp2791
g1388
aI3
aa(lp2792
g844
aI41
aa(lp2793
g1374
aI7
aa(lp2794
g2400
aI2
aa(lp2795
g1621
aI3
aa(lp2796
g723
aI1
aa(lp2797
g2165
aI57
aa(lp2798
g110
aI68
aa(lp2799
g2473
aI5
aa(lp2800
g2274
aI40
aa(lp2801
g1532
aI13
aa(lp2802
g1885
aI218
aa(lp2803
g50
aI19
aa(lp2804
g467
aI96
aa(lp2805
g2416
aI73
aa(lp2806
g261
aI8
aa(lp2807
g1555
aI18
aa(lp2808
g2266
aI49
aa(lp2809
g46
aI5
aa(lp2810
g624
aI4
aa(lp2811
g1102
aI46
aa(lp2812
g1922
aI57
aa(lp2813
g133
aI17
aa(lp2814
g1105
aI12
aa(lp2815
g1966
aI3
aa(lp2816
g2385
aI44
aa(lp2817
g1592
aI4
aa(lp2818
g381
aI462
aa(lp2819
g159
aI5
aa(lp2820
g109
aI44
aa(lp2821
g171
aI3
aa(lp2822
g56
aI15
aa(lp2823
g2269
aI1
aa(lp2824
g338
aI4
aa(lp2825
g2034
aI22
aa(lp2826
g13
aI8
aa(lp2827
g1141
aI2
aa(lp2828
g1322
aI411
aa(lp2829
g1719
aI2
aa(lp2830
g478
aI4
aa(lp2831
g471
aI31
aa(lp2832
g2081
aI20
aa(lp2833
g339
aI10
aa(lp2834
g428
aI1
aa(lp2835
g313
aI11
aa(lp2836
g197
aI27
aa(lp2837
g488
aI8
aa(lp2838
g1847
aI2
aa(lp2839
g2295
aI3
aa(lp2840
g270
aI7
aa(lp2841
g875
aI13
aa(lp2842
g2170
aI1
aa(lp2843
g510
aI13
aa(lp2844
g545
aI32
aa(lp2845
g278
aI8
aa(lp2846
g2167
aI2
aa(lp2847
g799
aI2
aa(lp2848
g223
aI45
aa(lp2849
g1558
aI15
aa(lp2850
g1953
aI6
aa(lp2851
g1807
aI3
aa(lp2852
g2315
aI21
aa(lp2853
g1476
aI2
aa(lp2854
g2396
aI58
aa(lp2855
g1513
aI14
aa(lp2856
g1800
aI3
aa(lp2857
g302
aI8
aa(lp2858
g1118
aI12
aa(lp2859
g548
aI13
aa(lp2860
g2352
aI5
aa(lp2861
g2232
aI52
aa(lp2862
g1605
aI10
aa(lp2863
g1230
aI1
aa(lp2864
g1153
aI1
aa(lp2865
g1479
aI25
aa(lp2866
g1453
aI11
aa(lp2867
g1218
aI3
aa(lp2868
g909
aI14
aa(lp2869
g1365
aI4
aa(lp2870
g703
aI10
aa(lp2871
g1582
aI11
aa(lp2872
g182
aI88
aa(lp2873
g906
aI10
aa(lp2874
g402
aI1
aa(lp2875
g2452
aI88
aa(lp2876
g1723
aI19
aa(lp2877
g1405
aI3
aa(lp2878
g1309
aI16
aa(lp2879
g60
aI5
aa(lp2880
g318
aI1
aa(lp2881
g1845
aI1
aa(lp2882
g1587
aI1
aa(lp2883
g91
aI17
aa(lp2884
g1599
aI7
aa(lp2885
g2103
aI1
aa(lp2886
g221
aI38
aa(lp2887
g446
aI15
aa(lp2888
g2059
aI7
aa(lp2889
g794
aI1
aa(lp2890
g971
aI128
aa(lp2891
g2551
aI4
aa(lp2892
g566
aI5
aa(lp2893
g2395
aI17
aa(lp2894
g2334
aI6
aa(lp2895
g1774
aI12
aa(lp2896
g1510
aI25
aa(lp2897
g298
aI17
aa(lp2898
g2418
aI14
aa(lp2899
g1603
aI4
aa(lp2900
g542
aI5
aa(lp2901
g2299
aI27
aa(lp2902
g800
aI37
aa(lp2903
g2304
aI3
aa(lp2904
g850
aI14
aa(lp2905
g1878
aI1
aa(lp2906
g685
aI2
aa(lp2907
g1387
aI19
aa(lp2908
g119
aI58
aa(lp2909
g2530
aI21
aa(lp2910
g1712
aI54
aa(lp2911
g1291
aI4
aa(lp2912
g321
aI63
aa(lp2913
g2261
aI12
aa(lp2914
g1530
aI28
aa(lp2915
g440
aI4
aa(lp2916
g359
aI3
aa(lp2917
g466
aI44
aa(lp2918
g1280
aI13
aa(lp2919
g2524
aI18
aa(lp2920
g598
aI4
aa(lp2921
g328
aI15
aa(lp2922
g529
aI1
aa(lp2923
g1665
aI5
aa(lp2924
g945
aI9
aa(lp2925
g140
aI9
aa(lp2926
g1916
aI17
aa(lp2927
g284
aI9
aa(lp2928
g658
aI23
aa(lp2929
g487
aI1
aa(lp2930
g922
aI7
aa(lp2931
g1505
aI7
aa(lp2932
g1047
aI5
aa(lp2933
g483
aI21
aa(lp2934
g2444
aI2
aa(lp2935
g901
aI60
aa(lp2936
g99
aI32
aa(lp2937
g2181
aI1
aa(lp2938
g61
aI21
aa(lp2939
g886
aI2
aa(lp2940
g326
aI40
aa(lp2941
g621
aI1
aa(lp2942
g633
aI1
aa(lp2943
g71
aI8
aa(lp2944
g73
aI6
aa(lp2945
g1851
aI16
aa(lp2946
g102
aI3
aa(lp2947
g1086
aI6
aa(lp2948
g1522
aI1
aa(lp2949
g962
aI32
aa(lp2950
g689
aI4
aa(lp2951
g1872
aI10
aa(lp2952
g129
aI1
aa(lp2953
g2459
aI3
aa(lp2954
g382
aI25
aa(lp2955
g161
aI2
aa(lp2956
g1003
aI16
aa(lp2957
g1051
aI4
aa(lp2958
g369
aI5
aa(lp2959
g1329
aI3
aa(lp2960
g1056
aI13
aa(lp2961
g1295
aI3
aa(lp2962
g1281
aI15
aa(lp2963
g902
aI9
aa(lp2964
g1646
aI1
aa(lp2965
g686
aI2
aa(lp2966
g576
aI1
aa(lp2967
g15
aI3
aa(lp2968
g116
aI6
aa(lp2969
g309
aI2
aa(lp2970
g721
aI41
aa(lp2971
g910
aI1
aa(lp2972
g422
aI38
aa(lp2973
g202
aI17
aa(lp2974
g2441
aI40
aa(lp2975
g1292
aI14
aa(lp2976
g31
aI12
aa(lp2977
g1444
aI30
aa(lp2978
g1969
aI10
aa(lp2979
g2229
aI5
aa(lp2980
g1161
aI7
aa(lp2981
g784
aI7
aa(lp2982
g421
aI28
aa(lp2983
g1271
aI2
aa(lp2984
g2354
aI18
aa(lp2985
g1782
aI1
aa(lp2986
g104
aI10
aa(lp2987
g1207
aI4
aa(lp2988
g2508
aI4
aa(lp2989
g80
aI7
aa(lp2990
g2342
aI9
aa(lp2991
g1804
aI1
aa(lp2992
g986
aI4
aa(lp2993
g817
aI2
aa(lp2994
g1382
aI10
aa(lp2995
g1009
aI39
aa(lp2996
g1389
aI9
aa(lp2997
g967
aI7
aa(lp2998
g393
aI20
aa(lp2999
g281
aI4
aa(lp3000
g2362
aI1
aa(lp3001
g2040
aI1
aa(lp3002
g1923
aI6
aa(lp3003
g2118
aI16
aa(lp3004
g2115
aI1
aa(lp3005
g484
aI3
aa(lp3006
g1973
aI1
aa(lp3007
g929
aI10
aa(lp3008
g2028
aI4
aa(lp3009
g2046
aI7
aa(lp3010
g990
aI24
aa(lp3011
g299
aI1
aa(lp3012
g12
aI1
aa(lp3013
g751
aI6
aa(lp3014
g1119
aI1
aa(lp3015
g1989
aI16
aa(lp3016
g670
aI2
aa(lp3017
g2195
aI1
aa(lp3018
g1144
aI10
aa(lp3019
g669
aI2
aa(lp3020
g1050
aI8
aa(lp3021
g989
aI2
aa(lp3022
g708
aI2
aa(lp3023
g2519
aI2
aa(lp3024
g612
aI50
aa(lp3025
g2348
aI1
aa(lp3026
g1980
aI50
aa(lp3027
g1324
aI27
aa(lp3028
g2367
aI4
aa(lp3029
g2207
aI5
aa(lp3030
g206
aI3
aa(lp3031
g779
aI50
aa(lp3032
g1021
aI13
aa(lp3033
g890
aI7
aa(lp3034
g2553
aI1
aa(lp3035
g2075
aI9
aa(lp3036
g866
aI16
aa(lp3037
g1562
aI13
aa(lp3038
g965
aI3
aa(lp3039
g2020
aI9
aa(lp3040
g1867
aI39
aa(lp3041
g899
aI23
aa(lp3042
g1794
aI3
aa(lp3043
g1676
aI21
aa(lp3044
g1215
aI3
aa(lp3045
g353
aI2
aa(lp3046
g235
aI1
aa(lp3047
g1187
aI10
aa(lp3048
g687
aI14
aa(lp3049
g2240
aI7
aa(lp3050
g1512
aI4
aa(lp3051
g1087
aI2
aa(lp3052
g2409
aI7
aa(lp3053
g1797
aI2
aa(lp3054
g1028
aI1
aa(lp3055
g2504
aI1
aa(lp3056
g2527
aI2
aa(lp3057
g1451
aI11
aa(lp3058
g769
aI6
aa(lp3059
g57
aI3
aa(lp3060
g1806
aI11
aa(lp3061
g770
aI1
aa(lp3062
g1353
aI10
aa(lp3063
g2270
aI63
aa(lp3064
g533
aI1
aa(lp3065
g1659
aI1
aa(lp3066
g2382
aI2
aa(lp3067
g2031
aI2
aa(lp3068
g691
aI2
aa(lp3069
g2468
aI15
aa(lp3070
g1748
aI5
aa(lp3071
g2567
aI2
aa(lp3072
g210
aI4
aa(lp3073
g2205
aI3
aa(lp3074
g142
aI1
aa(lp3075
g2380
aI33
aa(lp3076
g574
aI2
aa(lp3077
g108
aI10
aa(lp3078
g1834
aI5
aa(lp3079
g1277
aI62
aa(lp3080
g384
aI5
aa(lp3081
g1398
aI4
aa(lp3082
g1242
aI3
aa(lp3083
g761
aI2
aa(lp3084
g854
aI1
aa(lp3085
g1740
aI6
aa(lp3086
g2386
aI6
aa(lp3087
g1308
aI3
aa(lp3088
g1576
aI1
aa(lp3089
g894
aI2
aa(lp3090
g1038
aI3
aa(lp3091
g79
aI4
aa(lp3092
g1307
aI2
aa(lp3093
g1649
aI3
aa(lp3094
g2284
aI8
aa(lp3095
g1261
aI2
aa(lp3096
g625
aI1
aa(lp3097
g516
aI1
aa(lp3098
g1231
aI1
aa(lp3099
g2510
aI1
aa(lp3100
g828
aI1
aa(lp3101
g2056
aI1
aa(lp3102
g199
aI1
aa(lp3103
g1423
aI1
aa(lp3104
g806
aI1
aa(lp3105
g826
aI1
aa(lp3106
g2026
aI1
aa(lp3107
g2372
aI12
aa(lp3108
g641
aI19
aa(lp3109
g290
aI7
aa(lp3110
g1386
aI6
aa(lp3111
g2279
aI15
aa(lp3112
g2398
aI2
aa(lp3113
g969
aI13
aa(lp3114
g430
aI2
aa(lp3115
g953
aI11
aa(lp3116
g2539
aI11
aa(lp3117
g652
aI1
aa(lp3118
g1391
aI3
aa(lp3119
g1680
aI5
aa(lp3120
g355
aI5
aa(lp3121
g1874
aI3
aa(lp3122
g287
aI1
aa(lp3123
g2222
aI1
aa(lp3124
g134
aI49
aa(lp3125
g1787
aI25
aa(lp3126
g1441
aI49
aa(lp3127
g2249
aI3
aa(lp3128
g528
aI3
aa(lp3129
g1655
aI4
aa(lp3130
g2221
aI1
aa(lp3131
g378
aI12
aa(lp3132
g2051
aI1
aa(lp3133
g267
aI3
aa(lp3134
g1152
aI1
aa(lp3135
g1010
aI17
aa(lp3136
g2430
aI20
aa(lp3137
g1841
aI2
aa(lp3138
g2345
aI4
aa(lp3139
g1808
aI1
aa(lp3140
g716
aI9
aa(lp3141
g707
aI21
aa(lp3142
g1191
aI7
aa(lp3143
g524
aI15
aa(lp3144
g1489
aI2
aa(lp3145
g1071
aI1
aa(lp3146
g1421
aI8
aa(lp3147
g912
aI1
aa(lp3148
g2000
aI4
aa(lp3149
g2287
aI3
aa(lp3150
g1059
aI11
aa(lp3151
g1888
aI5
aa(lp3152
g754
aI10
aa(lp3153
g1516
aI1
aa(lp3154
g1849
aI13
aa(lp3155
g178
aI9
aa(lp3156
g1506
aI2
aa(lp3157
g405
aI9
aa(lp3158
g439
aI11
aa(lp3159
g1671
aI4
aa(lp3160
g1694
aI1
aa(lp3161
g1437
aI40
aa(lp3162
g798
aI1
aa(lp3163
g1137
aI12
aa(lp3164
g1089
aI18
aa(lp3165
g503
aI14
aa(lp3166
g907
aI1
aa(lp3167
g1823
aI4
aa(lp3168
g1433
aI7
aa(lp3169
g1668
aI8
aa(lp3170
g2537
aI3
aa(lp3171
g329
aI1
aa(lp3172
g2053
aI11
aa(lp3173
g845
aI13
aa(lp3174
g803
aI63
aa(lp3175
g2011
aI3
aa(lp3176
g559
aI1
aa(lp3177
g319
aI61
aa(lp3178
g943
aI4
aa(lp3179
g2474
aI5
aa(lp3180
g237
aI1
aa(lp3181
g361
aI14
aa(lp3182
g649
aI3
aa(lp3183
g804
aI11
aa(lp3184
g1843
aI7
aa(lp3185
g420
aI3
aa(lp3186
g1169
aI24
aa(lp3187
g1022
aI24
aa(lp3188
g1500
aI1
aa(lp3189
g1589
aI3
aa(lp3190
g1930
aI3
aa(lp3191
g433
aI12
aa(lp3192
g1702
aI1
aa(lp3193
g1707
aI14
aa(lp3194
g113
aI8
aa(lp3195
g462
aI1
aa(lp3196
g1336
aI11
aa(lp3197
g251
aI2
aa(lp3198
g211
aI2
aa(lp3199
g418
aI15
aa(lp3200
g2422
aI6
aa(lp3201
g2340
aI3
aa(lp3202
g2402
aI1
aa(lp3203
g2168
aI2
aa(lp3204
g1974
aI13
aa(lp3205
g864
aI7
aa(lp3206
g1043
aI1
aa(lp3207
g1564
aI3
aa(lp3208
g1809
aI6
aa(lp3209
g2264
aI1
aa(lp3210
g547
aI12
aa(lp3211
g1146
aI7
aa(lp3212
g1624
aI7
aa(lp3213
g2301
aI26
aa(lp3214
g128
aI9
aa(lp3215
g124
aI12
aa(lp3216
g1029
aI5
aa(lp3217
g2014
aI4
aa(lp3218
g571
aI1
aa(lp3219
g2288
aI1
aa(lp3220
g2498
aI1
aa(lp3221
g1770
aI2
aa(lp3222
g25
aI2
aa(lp3223
g2016
aI1
aa(lp3224
g1411
aI3
aa(lp3225
g1538
aI10
aa(lp3226
g2476
aI1
aa(lp3227
g2314
aI1
aa(lp3228
g2376
aI1
aa(lp3229
g1833
aI3
aa(lp3230
g1909
aI7
aa(lp3231
g1209
aI2
aa(lp3232
g1462
aI5
aa(lp3233
g1657
aI1
aa(lp3234
g1699
aI3
aa(lp3235
g2494
aI2
aa(lp3236
g960
aI10
aa(lp3237
g350
aI6
aa(lp3238
g2324
aI1
aa(lp3239
g2212
aI1
aa(lp3240
g628
aI5
aa(lp3241
g2487
aI1
aa(lp3242
g2098
aI30
aa(lp3243
g494
aI3
aa(lp3244
g931
aI16
aa(lp3245
g729
aI1
aa(lp3246
g233
aI1
aa(lp3247
g285
aI1
aa(lp3248
g2552
aI1
aa(lp3249
g490
aI5
aa(lp3250
g1701
aI11
aa(lp3251
g1371
aI10
aa(lp3252
g2525
aI125
aa(lp3253
g2550
aI2
aa(lp3254
g2312
aI3
aa(lp3255
g1921
aI6
aa(lp3256
g1560
aI42
aa(lp3257
g1879
aI4
aa(lp3258
g493
aI13
aa(lp3259
g2328
aI1
aa(lp3260
g1798
aI8
aa(lp3261
g1508
aI9
aa(lp3262
g1820
aI3
aa(lp3263
g452
aI48
aa(lp3264
g2125
aI7
aa(lp3265
g1795
aI4
aa(lp3266
g819
aI5
aa(lp3267
g1486
aI1
aa(lp3268
g1396
aI1
aa(lp3269
g1557
aI8
aa(lp3270
g1519
aI1
aa(lp3271
g337
aI12
aa(lp3272
g565
aI14
aa(lp3273
g1812
aI3
aa(lp3274
g2426
aI5
aa(lp3275
g74
aI8
aa(lp3276
g1072
aI5
aa(lp3277
g1165
aI9
aa(lp3278
g2361
aI5
aa(lp3279
g592
aI1
aa(lp3280
g1204
aI11
aa(lp3281
g1025
aI14
aa(lp3282
g1968
aI4
aa(lp3283
g1772
aI1
aa(lp3284
g2470
aI7
aa(lp3285
g736
aI7
aa(lp3286
g16
aI2
aa(lp3287
g297
aI10
aa(lp3288
g1943
aI16
aa(lp3289
g167
aI4
aa(lp3290
g385
aI3
aa(lp3291
g1445
aI2
aa(lp3292
g942
aI4
aa(lp3293
g1947
aI4
aa(lp3294
g2005
aI12
aa(lp3295
g1810
aI13
aa(lp3296
g2215
aI6
aa(lp3297
g2451
aI8
aa(lp3298
g1233
aI4
aa(lp3299
g2129
aI2
aa(lp3300
g2192
aI1
aa(lp3301
g456
aI6
aa(lp3302
g1606
aI3
aa(lp3303
g2145
aI1
aa(lp3304
g1708
aI1
aa(lp3305
g81
aI1
aa(lp3306
g166
aI1
aa(lp3307
g2022
aI4
aa(lp3308
g75
aI2
aa(lp3309
g497
aI2
aa(lp3310
g148
aI5
aa(lp3311
g441
aI3
aa(lp3312
g2106
aI3
aa(lp3313
g2175
aI12
aa(lp3314
g153
aI2
aa(lp3315
g2560
aI7
aa(lp3316
g1975
aI5
aa(lp3317
g750
aI3
aa(lp3318
g2399
aI5
aa(lp3319
g682
aI1
aa(lp3320
g2364
aI1
aa(lp3321
g1686
aI96
aa(lp3322
g49
aI1
aa(lp3323
g1362
aI9
aa(lp3324
g2102
aI1
aa(lp3325
g2138
aI1
aa(lp3326
g1108
aI1
aa(lp3327
g1880
aI1
aa(lp3328
g224
aI1
aa(lp3329
g1206
aI5
aa(lp3330
g1840
aI6
aa(lp3331
g573
aI2
aa(lp3332
g2516
aI3
aa(lp3333
g386
aI2
aa(lp3334
g1244
aI1
aa(lp3335
g1962
aI1
aa(lp3336
g2253
aI3
aa(lp3337
g1515
aI2
aa(lp3338
g1282
aI2
aa(lp3339
g781
aI8
aa(lp3340
g2024
aI1
aa(lp3341
g1430
aI1
aa(lp3342
g1651
aI8
aa(lp3343
g1463
aI7
aa(lp3344
g2563
aI5
aa(lp3345
g1995
aI3
aa(lp3346
g1190
aI19
aa(lp3347
g830
aI21
aa(lp3348
g1162
aI5
aa(lp3349
g1079
aI1
aa(lp3350
g1753
aI4
aa(lp3351
g1601
aI15
aa(lp3352
g2193
aI1
aa(lp3353
g1068
aI11
aa(lp3354
g1577
aI3
aa(lp3355
g1276
aI4
aa(lp3356
g1520
aI2
aa(lp3357
g2204
aI3
aa(lp3358
g2477
aI1
aa(lp3359
g1420
aI2
aa(lp3360
g554
aI4
aa(lp3361
g600
aI7
aa(lp3362
g752
aI14
aa(lp3363
g1514
aI1
aa(lp3364
g1198
aI1
aa(lp3365
g1367
aI3
aa(lp3366
g1634
aI2
aa(lp3367
g365
aI2
aa(lp3368
g1149
aI14
aa(lp3369
g1594
aI3
aa(lp3370
g1438
aI1
aa(lp3371
g818
aI7
aa(lp3372
g1045
aI2
aa(lp3373
g747
aI5
aa(lp3374
g551
aI1
aa(lp3375
g1713
aI14
aa(lp3376
g1145
aI5
aa(lp3377
g1114
aI2
aa(lp3378
g538
aI1
aa(lp3379
g2374
aI3
aa(lp3380
g2558
aI2
aa(lp3381
g758
aI2
aa(lp3382
g351
aI1
aa(lp3383
g1598
aI5
aa(lp3384
g2158
aI1
aa(lp3385
g48
aI1
aa(lp3386
g2401
aI4
aa(lp3387
g1381
aI1
aa(lp3388
g38
aI1
aa(lp3389
g666
aI1
aa(lp3390
g1865
aI1
aa(lp3391
g1428
aI1
aa(lp3392
g1080
aI1
aa(lp3393
g788
aI1
aa(lp3394
g2296
aI8
aa(lp3395
g23
aI5
aa(lp3396
g1135
aI1
aa(lp3397
g449
aI14
aa(lp3398
g89
aI1
aa(lp3399
g2120
aI18
aa(lp3400
g1978
aI2
aa(lp3401
g2293
aI5
aa(lp3402
g1862
aI1
aa(lp3403
g2557
aI1
aa(lp3404
g862
aI14
aa(lp3405
g1552
aI1
aa(lp3406
g585
aI6
aa(lp3407
g2501
aI2
aa(lp3408
g980
aI5
aa(lp3409
g715
aI1
aa(lp3410
g1731
aI1
aa(lp3411
g192
aI1
aa(lp3412
g771
aI1
aa(lp3413
g156
aI2
aa(lp3414
g1775
aI6
aa(lp3415
g1667
aI1
aa(lp3416
g746
aI4
aa(lp3417
g1959
aI8
aa(lp3418
g1301
aI2
aa(lp3419
g1466
aI7
aa(lp3420
g1664
aI2
aa(lp3421
g325
aI3
aa(lp3422
g1965
aI2
aa(lp3423
g1262
aI1
aa(lp3424
g2475
aI1
aa(lp3425
g169
aI1
aa(lp3426
g505
aI6
aa(lp3427
g1913
aI3
aa(lp3428
g2479
aI1
aa(lp3429
g122
aI1
aa(lp3430
g1306
aI2
aa(lp3431
g2243
aI8
aa(lp3432
g10
aI6
aa(lp3433
g2132
aI2
aa(lp3434
g84
aI2
aa(lp3435
g1061
aI5
aa(lp3436
g1895
aI1
aa(lp3437
g2224
aI1
aa(lp3438
g411
aI40
aa(lp3439
g777
aI5
aa(lp3440
g512
aI25
aa(lp3441
g1048
aI3
aa(lp3442
g2194
aI8
aa(lp3443
g1855
aI29
aa(lp3444
g1107
aI2
aa(lp3445
g735
aI1
aa(lp3446
g2392
aI1
aa(lp3447
g1490
aI2
aa(lp3448
g360
aI2
aa(lp3449
g1771
aI4
aa(lp3450
g363
aI1
aa(lp3451
g2122
aI4
aa(lp3452
g1376
aI3
aa(lp3453
g2467
aI1
aa(lp3454
g1402
aI3
aa(lp3455
g921
aI2
aa(lp3456
g1896
aI1
aa(lp3457
g1459
aI10
aa(lp3458
g387
aI34
aa(lp3459
g2152
aI6
aa(lp3460
g379
aI6
aa(lp3461
g1422
aI1
aa(lp3462
g1542
aI13
aa(lp3463
g1305
aI1
aa(lp3464
g357
aI1
aa(lp3465
g2231
aI1
aa(lp3466
g269
aI3
aa(lp3467
g307
aI8
aa(lp3468
g322
aI3
aa(lp3469
g987
aI1
aa(lp3470
g2146
aI1
aa(lp3471
g880
aI1
aa(lp3472
g696
aI2
aa(lp3473
g2109
aI7
aa(lp3474
g1248
aI3
aa(lp3475
g2127
aI8
aa(lp3476
g586
aI2
aa(lp3477
g519
aI2
aa(lp3478
g2369
aI1
aa(lp3479
g724
aI4
aa(lp3480
g764
aI2
aa(lp3481
g1611
aI1
aa(lp3482
g1226
aI1
aa(lp3483
g1213
aI1
aa(lp3484
g1385
aI1
aa(lp3485
g2219
aI2
aa(lp3486
g1644
aI1
aa(lp3487
g1939
aI15
aa(lp3488
g366
aI1
aa(lp3489
g1876
aI4
aa(lp3490
g2481
aI3
aa(lp3491
g1936
aI14
aa(lp3492
g1501
aI4
aa(lp3493
g18
aI2
aa(lp3494
g1497
aI5
aa(lp3495
g876
aI10
aa(lp3496
g2096
aI4
aa(lp3497
g2063
aI4
aa(lp3498
g114
aI13
aa(lp3499
g22
aI7
aa(lp3500
g2079
aI3
aa(lp3501
g1392
aI10
aa(lp3502
g1741
aI13
aa(lp3503
g2403
aI10
aa(lp3504
g2092
aI1
aa(lp3505
g1094
aI3
aa(lp3506
g2007
aI6
aa(lp3507
g855
aI4
aa(lp3508
g932
aI32
aa(lp3509
g19
aI2
aa(lp3510
g1227
aI1
aa(lp3511
g44
aI1
aa(lp3512
g1779
aI3
aa(lp3513
g464
aI1
aa(lp3514
g2116
aI1
aa(lp3515
g2443
aI2
aa(lp3516
g2397
aI3
aa(lp3517
g2015
aI4
aa(lp3518
g870
aI26
aa(lp3519
g1918
aI1
aa(lp3520
g1383
aI1
aa(lp3521
g1450
aI1
aa(lp3522
g1004
aI4
aa(lp3523
g1736
aI33
aa(lp3524
g1120
aI3
aa(lp3525
g1822
aI2
aa(lp3526
g175
aI14
aa(lp3527
g2154
aI3
aa(lp3528
g1730
aI2
aa(lp3529
g546
aI19
aa(lp3530
g275
aI1
aa(lp3531
g1890
aI1
aa(lp3532
g1926
aI2
aa(lp3533
g966
aI2
aa(lp3534
g2323
aI1
aa(lp3535
g874
aI1
aa(lp3536
g1853
aI1
aa(lp3537
g1333
aI7
aa(lp3538
g776
aI1
aa(lp3539
g1904
aI14
aa(lp3540
g21
aI2
aa(lp3541
g41
aI1
aa(lp3542
g331
aI1
aa(lp3543
g374
aI1
aa(lp3544
g234
aI4
aa(lp3545
g42
aI1
aa(lp3546
g1091
aI1
aa(lp3547
g1427
aI1
aa(lp3548
g889
aI1
aa(lp3549
g1168
aI2
aa(lp3550
g607
aI2
aa(lp3551
g1220
aI2
aa(lp3552
g1284
aI2
aa(lp3553
g1401
aI2
aa(lp3554
g1669
aI2
aa(lp3555
g978
aI1
aa(lp3556
g352
aI4
aa(lp3557
g1828
aI6
aa(lp3558
g580
aI2
aa(lp3559
g1077
aI1
aa(lp3560
g1696
aI43
aa(lp3561
g832
aI1
aa(lp3562
g1814
aI1
aa(lp3563
g2071
aI2
aa(lp3564
g486
aI1
aa(lp3565
g2383
aI2
aa(lp3566
g1507
aI29
aa(lp3567
g2326
aI1
aa(lp3568
g2309
aI5
aa(lp3569
g2073
aI3
aa(lp3570
g115
aI1
aa(lp3571
g1096
aI5
aa(lp3572
g1871
aI2
aa(lp3573
g2390
aI1
aa(lp3574
g507
aI1
aa(lp3575
g2108
aI2
aa(lp3576
g615
aI2
aa(lp3577
g550
aI3
aa(lp3578
g59
aI1
aa(lp3579
g1241
aI1
aa(lp3580
g2009
aI1
aa(lp3581
g2185
aI1
aa(lp3582
g1999
aI9
aa(lp3583
g227
aI12
aa(lp3584
g2027
aI6
aa(lp3585
g273
aI4
aa(lp3586
g1272
aI1
aa(lp3587
g2161
aI3
aa(lp3588
g1765
aI1
aa(lp3589
g106
aI1
aa(lp3590
g1616
aI1
aa(lp3591
g2442
aI1
aa(lp3592
g1237
aI1
aa(lp3593
g2365
aI1
aa(lp3594
g1960
aI8
aa(lp3595
g1620
aI9
aa(lp3596
g2111
aI1
aa(lp3597
g52
aI1
aa(lp3598
g1364
aI2
aa(lp3599
g1743
aI1
aa(lp3600
g2456
aI1
aa(lp3601
g816
aI1
aa(lp3602
g2086
aI1
aa(lp3603
g342
aI10
aa(lp3604
g824
aI1
aa(lp3605
g1684
aI1
aa(lp3606
g705
aI1
aa(lp3607
g1830
aI1
aa(lp3608
g2534
aI1
aa(lp3609
g1177
aI8
aa(lp3610
g1745
aI6
aa(lp3611
g520
aI2
aa(lp3612
g1457
aI2
aa(lp3613
g1992
aI2
aa(lp3614
g522
aI7
aa(lp3615
g1788
aI3
aa(lp3616
g474
aI2
aa(lp3617
g2423
aI2
aa(lp3618
g567
aI1
aa(lp3619
g1192
aI10
aa(lp3620
g775
aI8
aa(lp3621
g2089
aI5
aa(lp3622
g1858
aI6
aa(lp3623
g1005
aI3
aa(lp3624
g410
aI17
aa(lp3625
g1348
aI4
aa(lp3626
g2319
aI1
aa(lp3627
g815
aI4
aa(lp3628
g587
aI1
aa(lp3629
g861
aI1
aa(lp3630
g1894
aI2
aa(lp3631
g1618
aI2
aa(lp3632
g645
aI3
aa(lp3633
g2236
aI8
aa(lp3634
g2538
aI6
aa(lp3635
g37
aI1
aa(lp3636
g1470
aI3
aa(lp3637
g1760
aI4
aa(lp3638
g711
aI1
aa(lp3639
g1759
aI1
aa(lp3640
g45
aI1
aa(lp3641
g1496
aI4
aa(lp3642
g1170
aI3
aa(lp3643
g2069
aI3
aa(lp3644
g2281
aI2
aa(lp3645
g317
aI3
aa(lp3646
g1224
aI5
aa(lp3647
g2353
aI1
aa(lp3648
g1755
aI3
aa(lp3649
g1613
aI4
aa(lp3650
g54
aI3
aa(lp3651
g1349
aI2
aa(lp3652
g2486
aI3
aa(lp3653
g391
aI5
aa(lp3654
g1180
aI1
aa(lp3655
g582
aI1
aa(lp3656
g132
aI1
aa(lp3657
g2489
aI3
aa(lp3658
g1001
aI1
aa(lp3659
g1553
aI1
aa(lp3660
g640
aI1
aa(lp3661
g1735
aI1
aa(lp3662
g1652
aI23
aa(lp3663
g2544
aI3
aa(lp3664
g1915
aI3
aa(lp3665
g217
aI3
aa(lp3666
g95
aI9
aa(lp3667
g634
aI3
aa(lp3668
g66
aI3
aa(lp3669
g1734
aI14
aa(lp3670
g152
aI2
aa(lp3671
g2307
aI1
aa(lp3672
g2394
aI1
aa(lp3673
g760
aI10
aa(lp3674
g1835
aI1
aa(lp3675
g742
aI22
aa(lp3676
g532
aI4
aa(lp3677
g591
aI2
aa(lp3678
g1134
aI4
aa(lp3679
g1454
aI1
aa(lp3680
g833
aI1
aa(lp3681
g1201
aI1
aa(lp3682
g2209
aI3
aa(lp3683
g498
aI2
aa(lp3684
g1052
aI1
aa(lp3685
g2110
aI2
aa(lp3686
g83
aI9
aa(lp3687
g2453
aI2
aa(lp3688
g2208
aI1
aa(lp3689
g94
aI1
aa(lp3690
g204
aI10
aa(lp3691
g1493
aI3
aa(lp3692
g1541
aI3
aa(lp3693
g1194
aI1
aa(lp3694
g737
aI5
aa(lp3695
g1174
aI5
aa(lp3696
g1604
aI8
aa(lp3697
g2036
aI7
aa(lp3698
g1378
aI3
aa(lp3699
g120
aI9
aa(lp3700
g756
aI5
aa(lp3701
g1384
aI1
aa(lp3702
g399
aI3
aa(lp3703
g710
aI5
aa(lp3704
g2077
aI3
aa(lp3705
g72
aI1
aa(lp3706
g2464
aI1
aa(lp3707
g630
aI5
aa(lp3708
g2499
aI4
aa(lp3709
g1984
aI5
aa(lp3710
g1573
aI1
aa(lp3711
g86
aI1
aa(lp3712
g1662
aI1
aa(lp3713
g998
aI1
aa(lp3714
g312
aI8
aa(lp3715
g1449
aI4
aa(lp3716
g993
aI3
aa(lp3717
g1882
aI1
aa(lp3718
g2023
aI2
aa(lp3719
g1617
aI2
aa(lp3720
g1481
aI1
aa(lp3721
g64
aI1
aa(lp3722
g1673
aI3
aa(lp3723
g618
aI3
aa(lp3724
g1920
aI3
aa(lp3725
g2258
aI2
aa(lp3726
g868
aI1
aa(lp3727
g2338
aI1
aa(lp3728
g1725
aI1
aa(lp3729
g2135
aI1
aa(lp3730
g2368
aI5
aa(lp3731
g2327
aI3
aa(lp3732
g891
aI2
aa(lp3733
g1718
aI1
aa(lp3734
g246
aI2
aa(lp3735
g461
aI1
aa(lp3736
g549
aI1
aa(lp3737
g1784
aI17
aa(lp3738
g163
aI6
aa(lp3739
g2114
aI2
aa(lp3740
g1076
aI15
aa(lp3741
g639
aI3
aa(lp3742
g1901
aI1
aa(lp3743
g1358
aI3
aa(lp3744
g1891
aI2
aa(lp3745
g1570
aI4
aa(lp3746
g1793
aI5
aa(lp3747
g651
aI4
aa(lp3748
g2210
aI1
aa(lp3749
g1138
aI4
aa(lp3750
g1002
aI4
aa(lp3751
g2188
aI5
aa(lp3752
g1887
aI4
aa(lp3753
g718
aI2
aa(lp3754
g1140
aI5
aa(lp3755
g867
aI1
aa(lp3756
g453
aI3
aa(lp3757
g935
aI1
aa(lp3758
g1742
aI1
aa(lp3759
g835
aI1
aa(lp3760
g1334
aI1
aa(lp3761
g2113
aI3
aa(lp3762
g1590
aI1
aa(lp3763
g1704
aI1
aa(lp3764
g1597
aI3
aa(lp3765
g1554
aI1
aa(lp3766
g2427
aI1
aa(lp3767
g1211
aI3
aa(lp3768
g241
aI2
aa(lp3769
g1690
aI1
aa(lp3770
g963
aI2
aa(lp3771
g2230
aI2
aa(lp3772
g2252
aI1
aa(lp3773
g112
aI13
aa(lp3774
g884
aI8
aa(lp3775
g1925
aI1
aa(lp3776
g1586
aI1
aa(lp3777
g1395
aI7
aa(lp3778
g1631
aI1
aa(lp3779
g1327
aI1
aa(lp3780
g1869
aI1
aa(lp3781
g881
aI5
aa(lp3782
g852
aI1
aa(lp3783
g2480
aI9
aa(lp3784
g429
aI1
aa(lp3785
g1747
aI2
aa(lp3786
g1461
aI1
aa(lp3787
g272
aI1
aa(lp3788
g1400
aI2
aa(lp3789
g443
aI1
aa(lp3790
g1247
aI6
aa(lp3791
g1728
aI1
aa(lp3792
g643
aI3
aa(lp3793
g2411
aI3
aa(lp3794
g118
aI3
aa(lp3795
g1716
aI15
aa(lp3796
g1053
aI2
aa(lp3797
g1070
aI1
aa(lp3798
g1697
aI6
aa(lp3799
g1751
aI3
aa(lp3800
g2465
aI5
aa(lp3801
g2001
aI1
aa(lp3802
g1404
aI6
aa(lp3803
g1625
aI1
aa(lp3804
g2565
aI4
aa(lp3805
g1682
aI2
aa(lp3806
g1550
aI1
aa(lp3807
g256
aI11
aa(lp3808
g1941
aI4
aa(lp3809
g2542
aI1
aa(lp3810
g1304
aI13
aa(lp3811
g1034
aI1
aa(lp3812
g216
aI1
aa(lp3813
g695
aI2
aa(lp3814
g829
aI6
aa(lp3815
g468
aI7
aa(lp3816
g1607
aI9
aa(lp3817
g1480
aI1
aa(lp3818
g1366
aI2
aa(lp3819
g1409
aI5
aa(lp3820
g1861
aI1
aa(lp3821
g690
aI4
aa(lp3822
g2190
aI2
aa(lp3823
g2347
aI5
aa(lp3824
g1991
aI4
aa(lp3825
g1546
aI3
aa(lp3826
g1046
aI2
aa(lp3827
g1786
aI3
aa(lp3828
g1580
aI9
aa(lp3829
g27
aI1
aa(lp3830
g154
aI1
aa(lp3831
g632
aI2
aa(lp3832
g619
aI1
aa(lp3833
g985
aI2
aa(lp3834
g70
aI5
aa(lp3835
g2169
aI3
aa(lp3836
g2010
aI2
aa(lp3837
g527
aI1
aa(lp3838
g1817
aI2
aa(lp3839
g2325
aI1
aa(lp3840
g1166
aI3
aa(lp3841
g992
aI2
aa(lp3842
g511
aI4
aa(lp3843
g744
aI4
aa(lp3844
g213
aI4
aa(lp3845
g655
aI1
aa(lp3846
g1727
aI1
aa(lp3847
g920
aI2
aa(lp3848
g1035
aI1
aa(lp3849
g1246
aI7
aa(lp3850
g2450
aI1
aa(lp3851
g279
aI1
aa(lp3852
g1156
aI1
aa(lp3853
g1912
aI1
aa(lp3854
g2119
aI1
aa(lp3855
g253
aI4
aa(lp3856
g362
aI1
aa(lp3857
g348
aI1
aa(lp3858
g668
aI9
aa(lp3859
g146
aI1
aa(lp3860
g145
aI1
aa(lp3861
g33
aI3
aa(lp3862
g650
aI1
aa(lp3863
g1785
aI1
aa(lp3864
g2313
aI2
aa(lp3865
g1406
aI1
aa(lp3866
g183
aI4
aa(lp3867
g2535
aI3
aa(lp3868
g1498
aI6
aa(lp3869
g1951
aI1
aa(lp3870
g264
aI4
aa(lp3871
g2318
aI1
aa(lp3872
g949
aI8
aa(lp3873
g839
aI1
aa(lp3874
g2447
aI3
aa(lp3875
g396
aI5
aa(lp3876
g1561
aI1
aa(lp3877
g847
aI1
aa(lp3878
g58
aI3
aa(lp3879
g1474
aI6
aa(lp3880
g1332
aI1
aa(lp3881
g584
aI1
aa(lp3882
g1311
aI4
aa(lp3883
g706
aI2
aa(lp3884
g349
aI2
aa(lp3885
g879
aI4
aa(lp3886
g1536
aI1
aa(lp3887
g143
aI1
aa(lp3888
g1116
aI2
aa(lp3889
g32
aI1
aa(lp3890
g2439
aI5
aa(lp3891
g1677
aI1
aa(lp3892
g552
aI4
aa(lp3893
g2384
aI5
aa(lp3894
g1473
aI3
aa(lp3895
g245
aI3
aa(lp3896
g76
aI2
aa(lp3897
g2076
aI4
aa(lp3898
g283
aI2
aa(lp3899
g380
aI2
aa(lp3900
g1996
aI2
aa(lp3901
g1687
aI2
aa(lp3902
g905
aI9
aa(lp3903
g2163
aI1
aa(lp3904
g656
aI5
aa(lp3905
g2433
aI3
aa(lp3906
g150
aI4
aa(lp3907
g773
aI1
aa(lp3908
g593
aI2
aa(lp3909
g602
aI4
aa(lp3910
g448
aI6
aa(lp3911
g1511
aI4
aa(lp3912
g1721
aI6
aa(lp3913
g2142
aI6
aa(lp3914
g2018
aI2
aa(lp3915
g1296
aI2
aa(lp3916
g412
aI8
aa(lp3917
g184
aI2
aa(lp3918
g258
aI1
aa(lp3919
g1060
aI8
aa(lp3920
g1014
aI2
aa(lp3921
g1658
aI4
aa(lp3922
g105
aI2
aa(lp3923
g1298
aI1
aa(lp3924
g1415
aI4
aa(lp3925
g1724
aI2
aa(lp3926
g1983
aI1
aa(lp3927
g1689
aI7
aa(lp3928
g1715
aI2
aa(lp3929
g236
aI1
aa(lp3930
g1323
aI7
aa(lp3931
g1469
aI1
aa(lp3932
g1416
aI2
aa(lp3933
g1499
aI3
aa(lp3934
g1196
aI1
aa(lp3935
g1058
aI2
aa(lp3936
g1691
aI1
aa(lp3937
g1588
aI1
aa(lp3938
g1040
aI3
aa(lp3939
g341
aI1
aa(lp3940
g1636
aI3
aa(lp3941
g1447
aI4
aa(lp3942
g231
aI1
aa(lp3943
g2569
aI1
aa(lp3944
g2513
aI1
aa(lp3945
g1164
aI1
aa(lp3946
g208
aI1
aa(lp3947
g2251
aI2
aa(lp3948
g130
aI11
aa(lp3949
g2393
aI1
aa(lp3950
g1163
aI1
aa(lp3951
g939
aI1
aa(lp3952
g1316
aI1
aa(lp3953
g977
aI1
aa(lp3954
g207
aI1
aa(lp3955
g1182
aI1
aa(lp3956
g1521
aI1
aa(lp3957
g200
aI8
aa(lp3958
g2429
aI1
aa(lp3959
g1711
aI1
aa(lp3960
g315
aI10
aa(lp3961
g1436
aI1
aa(lp3962
g97
aI1
aa(lp3963
g1524
aI1
aa(lp3964
g1082
aI1
aa(lp3965
g719
aI1
aa(lp3966
g1340
aI1
aa(lp3967
g2267
aI1
aa(lp3968
g1302
aI4
aa(lp3969
g693
aI1
aa(lp3970
g435
aI8
aa(lp3971
g415
aI5
aa(lp3972
g1125
aI2
aa(lp3973
g1299
aI2
aa(lp3974
g1824
aI3
aa(lp3975
g2455
aI3
aa(lp3976
g186
aI28
aa(lp3977
g93
aI6
aa(lp3978
g343
aI3
aa(lp3979
g1265
aI5
aa(lp3980
g2373
aI2
aa(lp3981
g1016
aI5
aa(lp3982
g745
aI1
aa(lp3983
g2061
aI2
aa(lp3984
g1670
aI1
aa(lp3985
g252
aI2
aa(lp3986
g294
aI1
aa(lp3987
g2375
aI3
aa(lp3988
g1228
aI1
aa(lp3989
g2260
aI1
aa(lp3990
g2460
aI1
aa(lp3991
g560
aI3
aa(lp3992
g244
aI7
aa(lp3993
g2239
aI8
aa(lp3994
g948
aI11
aa(lp3995
g291
aI1
aa(lp3996
g1020
aI1
aa(lp3997
g834
aI13
aa(lp3998
g2522
aI2
aa(lp3999
g85
aI3
aa(lp4000
g732
aI1
aa(lp4001
g597
aI3
aa(lp4002
g938
aI1
aa(lp4003
g1154
aI1
aa(lp4004
g709
aI1
aa(lp4005
g1007
aI2
aa(lp4006
g753
aI1
aa(lp4007
g772
aI1
aa(lp4008
g1754
aI2
aa(lp4009
g340
aI2
aa(lp4010
g2245
aI1
aa(lp4011
g688
aI6
aa(lp4012
g846
aI5
aa(lp4013
g1509
aI1
aa(lp4014
g1258
aI6
aa(lp4015
g1630
aI6
aa(lp4016
g595
aI1
aa(lp4017
g1717
aI1
aa(lp4018
g1435
aI1
aa(lp4019
g2317
aI1
aa(lp4020
g2233
aI4
aa(lp4021
g1456
aI4
aa(lp4022
g1656
aI8
aa(lp4023
g1615
aI1
aa(lp4024
g1370
aI1
aa(lp4025
g783
aI2
aa(lp4026
g1523
aI3
aa(lp4027
g334
aI1
aa(lp4028
g1629
aI1
aa(lp4029
g877
aI1
aa(lp4030
g1757
aI1
aa(lp4031
g657
aI1
aa(lp4032
g1602
aI1
aa(lp4033
g1641
aI2
aa(lp4034
g479
aI1
aa(lp4035
g392
aI2
aa(lp4036
g725
aI1
aa(lp4037
g1569
aI1
aa(lp4038
g2121
aI1
aa(lp4039
g2316
aI1
aa(lp4040
g873
aI1
aa(lp4041
g1338
aI1
aa(lp4042
g636
aI1
aa(lp4043
g305
aI1
aa(lp4044
g2297
aI1
aa(lp4045
g2571
aI2
aa(lp4046
g1039
aI1
aa(lp4047
g599
aI1
aa(lp4048
g1859
aI2
aa(lp4049
g1229
aI8
aa(lp4050
g259
aI1
aa(lp4051
g2083
aI2
aa(lp4052
g1831
aI4
aa(lp4053
g263
aI1
aa(lp4054
g2320
aI4
aa(lp4055
g1732
aI9
aa(lp4056
g1023
aI1
aa(lp4057
g327
aI4
aa(lp4058
g1178
aI2
aa(lp4059
g1863
aI5
aa(lp4060
g2488
aI1
aa(lp4061
g577
aI1
aa(lp4062
g220
aI1
aa(lp4063
g1443
aI2
aa(lp4064
g1568
aI1
aa(lp4065
g1928
aI1
aa(lp4066
g1911
aI1
aa(lp4067
g1758
aI2
aa(lp4068
g2029
aI2
aa(lp4069
g2242
aI2
aa(lp4070
g2461
aI1
aa(lp4071
g768
aI2
aa(lp4072
g2428
aI2
aa(lp4073
g1805
aI2
aa(lp4074
g257
aI4
aa(lp4075
g2406
aI2
aa(lp4076
g1448
aI2
aa(lp4077
g1705
aI2
aa(lp4078
g1193
aI2
aa(lp4079
g1200
aI2
aa(lp4080
g896
aI1
aa(lp4081
g2159
aI1
aa(lp4082
g2350
aI1
aa(lp4083
g1829
aI1
aa(lp4084
g172
aI2
aa(lp4085
g229
aI3
aa(lp4086
g320
aI2
aa(lp4087
g2357
aI1
aa(lp4088
g2217
aI1
aa(lp4089
g30
aI1
aa(lp4090
g1632
aI1
aa(lp4091
g158
aI4
aa(lp4092
g2250
aI1
aa(lp4093
g1352
aI2
aa(lp4094
g2184
aI3
aa(lp4095
g2435
aI2
aa(lp4096
g123
aI9
aa(lp4097
g851
aI3
aa(lp4098
g2126
aI1
aa(lp4099
g1945
aI1
aa(lp4100
g1027
aI1
aa(lp4101
g836
aI1
aa(lp4102
g482
aI1
aa(lp4103
g996
aI2
aa(lp4104
g1064
aI1
aa(lp4105
g1955
aI7
aa(lp4106
g1571
aI12
aa(lp4107
g1816
aI1
aa(lp4108
g570
aI2
aa(lp4109
g1852
aI1
aa(lp4110
g2505
aI4
aa(lp4111
g2164
aI4
aa(lp4112
g2520
aI10
aa(lp4113
g1250
aI1
aa(lp4114
g590
aI1
aa(lp4115
g1518
aI2
aa(lp4116
g1503
aI1
aa(lp4117
g2200
aI1
aa(lp4118
g569
aI3
aa(lp4119
g1986
aI1
aa(lp4120
g137
aI9
aa(lp4121
g1373
aI1
aa(lp4122
g1654
aI5
aa(lp4123
g14
aI6
aa(lp4124
g179
aI1
aa(lp4125
g28
aI1
aa(lp4126
g837
aI1
aa(lp4127
g1439
aI4
aa(lp4128
g1238
aI1
aa(lp4129
g280
aI8
aa(lp4130
g1931
aI1
aa(lp4131
g1477
aI1
aa(lp4132
g157
aI1
aa(lp4133
g681
aI1
aa(lp4134
g2064
aI2
aa(lp4135
g78
aI2
aa(lp4136
g2080
aI1
aa(lp4137
g2124
aI1
aa(lp4138
g262
aI3
aa(lp4139
g1946
aI1
aa(lp4140
g1997
aI2
aa(lp4141
g999
aI3
aa(lp4142
g1037
aI1
aa(lp4143
g141
aI1
aa(lp4144
g973
aI7
aa(lp4145
g390
aI1
aa(lp4146
g1848
aI2
aa(lp4147
g502
aI3
aa(lp4148
g1781
aI1
aa(lp4149
g495
aI3
aa(lp4150
g1175
aI1
aa(lp4151
g1575
aI1
aa(lp4152
g1850
aI2
aa(lp4153
g849
aI2
aa(lp4154
g679
aI1
aa(lp4155
g2117
aI3
aa(lp4156
g2065
aI3
aa(lp4157
g35
aI3
aa(lp4158
g1467
aI13
aa(lp4159
g677
aI1
aa(lp4160
g2576
aI4
aa(lp4161
g127
aI1
aa(lp4162
g1289
aI1
aa(lp4163
g1801
aI1
aa(lp4164
g2387
aI1
aa(lp4165
g2546
aI11
aa(lp4166
g2485
aI8
aa(lp4167
g1484
aI14
aa(lp4168
g1638
aI3
aa(lp4169
g1036
aI3
aa(lp4170
g2351
aI4
aa(lp4171
g1136
aI1
aa(lp4172
g1285
aI8
aa(lp4173
g2322
aI1
aa(lp4174
g1112
aI3
aa(lp4175
g2511
aI1
aa(lp4176
g2187
aI1
aa(lp4177
g2518
aI1
aa(lp4178
g858
aI1
aa(lp4179
g1452
aI1
aa(lp4180
g316
aI3
aa(lp4181
g950
aI2
aa(lp4182
g333
aI75
aa(lp4183
g160
aI3
aa(lp4184
g882
aI1
aa(lp4185
g310
aI2
aa(lp4186
g739
aI8
aa(lp4187
g2344
aI3
aa(lp4188
g2247
aI1
aa(lp4189
g1464
aI1
aa(lp4190
g2440
aI1
aa(lp4191
g9
aI2
aa(lp4192
g627
aI2
aa(lp4193
g1579
aI2
aa(lp4194
g1908
aI2
aa(lp4195
g1127
aI2
aa(lp4196
g638
aI3
aa(lp4197
g604
aI6
aa(lp4198
g1351
aI4
aa(lp4199
g2478
aI1
aa(lp4200
g1090
aI6
aa(lp4201
g2265
aI3
aa(lp4202
g1854
aI1
aa(lp4203
g537
aI1
aa(lp4204
g672
aI10
aa(lp4205
g968
aI1
aa(lp4206
g1944
aI1
aa(lp4207
g1678
aI1
aa(lp4208
g853
aI2
aa(lp4209
g47
aI1
aa(lp4210
g62
aI6
aa(lp4211
g1355
aI2
aa(lp4212
g1129
aI2
aa(lp4213
g409
aI1
aa(lp4214
g2438
aI2
aa(lp4215
g810
aI1
aa(lp4216
g1549
aI3
aa(lp4217
g1773
aI10
aa(lp4218
g2532
aI1
aa(lp4219
g242
aI4
aa(lp4220
g1330
aI1
aa(lp4221
g1214
aI1
aa(lp4222
g1672
aI1
aa(lp4223
g398
aI4
aa(lp4224
g77
aI1
aa(lp4225
g1399
aI1
aa(lp4226
g812
aI3
aa(lp4227
g2091
aI14
aa(lp4228
g702
aI13
aa(lp4229
g1789
aI2
aa(lp4230
g2540
aI2
aa(lp4231
g898
aI2
aa(lp4232
g801
aI18
aa(lp4233
g2178
aI1
aa(lp4234
g1483
aI1
aa(lp4235
g194
aI1
aa(lp4236
g2294
aI2
aa(lp4237
g1335
aI2
aa(lp4238
g492
aI1
aa(lp4239
g1393
aI1
aa(lp4240
g2523
aI6
aa(lp4241
g1750
aI1
aa(lp4242
g1825
aI1
aa(lp4243
g934
aI7
aa(lp4244
g1253
aI1
aa(lp4245
g1692
aI3
aa(lp4246
g1186
aI3
aa(lp4247
g2291
aI7
aa(lp4248
g2413
aI2
aa(lp4249
g173
aI1
aa(lp4250
g1709
aI2
aa(lp4251
g2559
aI1
aa(lp4252
g653
aI1
aa(lp4253
g477
aI2
aa(lp4254
g2262
aI2
aa(lp4255
g249
aI2
aa(lp4256
g2227
aI1
aa(lp4257
g149
aI4
aa(lp4258
g136
aI1
aa(lp4259
g692
aI1
aa(lp4260
g2343
aI1
aa(lp4261
g629
aI1
aa(lp4262
g2482
aI1
aa(lp4263
g2172
aI1
aa(lp4264
g2495
aI4
aa(lp4265
g1372
aI1
aa(lp4266
g469
aI3
aa(lp4267
g667
aI3
aa(lp4268
g697
aI3
aa(lp4269
g1434
aI2
aa(lp4270
g1408
aI4
aa(lp4271
g426
aI1
aa(lp4272
g734
aI1
aa(lp4273
g1255
aI1
aa(lp4274
g177
aI1
aa(lp4275
g2306
aI5
aa(lp4276
g1203
aI2
aa(lp4277
g1054
aI4
aa(lp4278
g2241
aI1
aa(lp4279
g930
aI1
aa(lp4280
g2349
aI1
aa(lp4281
g2066
aI2
aa(lp4282
g414
aI1
aa(lp4283
g872
aI1
aa(lp4284
g1929
aI2
aa(lp4285
g1184
aI1
aa(lp4286
g755
aI3
aa(lp4287
g2310
aI4
aa(lp4288
g2183
aI2
aa(lp4289
g2093
aI1
aa(lp4290
g793
aI1
aa(lp4291
g1722
aI6
aa(lp4292
g1380
aI2
aa(lp4293
g1208
aI4
aa(lp4294
g1963
aI7
aa(lp4295
g644
aI3
aa(lp4296
g2226
aI1
aa(lp4297
g306
aI2
aa(lp4298
g248
aI1
aa(lp4299
g2286
aI1
aa(lp4300
g1990
aI1
aa(lp4301
g431
aI2
aa(lp4302
g356
aI1
aa(lp4303
g1172
aI1
aa(lp4304
g1566
aI2
aa(lp4305
g975
aI3
aa(lp4306
g1856
aI3
aa(lp4307
g1485
aI4
aa(lp4308
g2561
aI1
aa(lp4309
g1011
aI1
aa(lp4310
g368
aI1
aa(lp4311
g2048
aI1
aa(lp4312
g1475
aI1
aa(lp4313
g556
aI1
aa(lp4314
g2472
aI3
aa(lp4315
g2547
aI2
aa(lp4316
g1286
aI1
aa(lp4317
g722
aI1
aa(lp4318
g1905
aI1
aa(lp4319
g1195
aI1
aa(lp4320
g1639
aI1
aa(lp4321
g2568
aI4
aa(lp4322
g437
aI1
aa(lp4323
g1240
aI1
aa(lp4324
g1346
aI1
aa(lp4325
g1647
aI2
aa(lp4326
g1661
aI2
aa(lp4327
g1339
aI3
aa(lp4328
g933
aI1
aa(lp4329
g1150
aI1
aa(lp4330
g2337
aI2
aa(lp4331
g2431
aI4
aa(lp4332
g964
aI1
aa(lp4333
g1614
aI1
aa(lp4334
g1268
aI1
aa(lp4335
g885
aI6
aa(lp4336
g447
aI2
aa(lp4337
g2303
aI1
aa(lp4338
g425
aI2
aa(lp4339
g865
aI1
aa(lp4340
g2263
aI1
aa(lp4341
g749
aI1
aa(lp4342
g432
aI1
aa(lp4343
g785
aI1
aa(lp4344
g1633
aI1
aa(lp4345
g1236
aI1
aa(lp4346
g665
aI1
aa(lp4347
g416
aI1
aa(lp4348
g372
aI1
aa(lp4349
g2235
aI2
aa(lp4350
g568
aI2
aa(lp4351
g1331
aI5
aa(lp4352
g699
aI56
aa(lp4353
g1846
aI34
aa(lp4354
g1556
aI31
aa(lp4355
g778
aI1
aa(lp4356
g843
aI15
aa(lp4357
g1803
aI1
aa(lp4358
g741
aI1
aa(lp4359
g434
aI1
aa(lp4360
g603
aI1
aa(lp4361
g96
aI1
aa(lp4362
g1344
aI1
aa(lp4363
g1157
aI2
aa(lp4364
g1275
aI1
aa(lp4365
g1739
aI2
aa(lp4366
g733
aI2
aa(lp4367
g2201
aI1
aa(lp4368
g2424
aI2
aa(lp4369
g2555
aI1
aa(lp4370
g176
aI1
aa(lp4371
g536
aI1
aa(lp4372
g1733
aI1
aa(lp4373
g926
aI2
aa(lp4374
g335
aI2
aa(lp4375
g509
aI1
aa(lp4376
g424
aI1
aa(lp4377
g1431
aI1
aa(lp4378
g589
aI2
aa(lp4379
g544
aI1
aa(lp4380
g2133
aI3
aa(lp4381
g1426
aI1
aa(lp4382
g2176
aI2
aa(lp4383
g2060
aI40
aa(lp4384
g1917
aI4
aa(lp4385
g1083
aI8
aa(lp4386
g1832
aI2
aa(lp4387
g354
aI2
aa(lp4388
g1767
aI2
aa(lp4389
g2407
aI1
aa(lp4390
g684
aI1
aa(lp4391
g162
aI2
aa(lp4392
g883
aI3
aa(lp4393
g222
aI2
aa(lp4394
g1139
aI2
aa(lp4395
g2173
aI1
aa(lp4396
g1110
aI2
aa(lp4397
g470
aI1
aa(lp4398
g1488
aI2
aa(lp4399
g991
aI2
aa(lp4400
g2448
aI1
aa(lp4401
g174
aI6
aa(lp4402
g2454
aI1
aa(lp4403
g1790
aI3
aa(lp4404
g1737
aI2
aa(lp4405
g100
aI3
aa(lp4406
g1356
aI1
aa(lp4407
g1813
aI1
aa(lp4408
g185
aI2
aa(lp4409
g1350
aI2
aa(lp4410
g1819
aI2
aa(lp4411
g831
aI1
aa(lp4412
g491
aI9
aa(lp4413
g2466
aI1
aa(lp4414
g51
aI2
aa(lp4415
g1078
aI4
aa(lp4416
g518
aI1
aa(lp4417
g191
aI7
aa(lp4418
g463
aI1
aa(lp4419
g1836
aI2
aa(lp4420
g534
aI4
aa(lp4421
g303
aI2
aa(lp4422
g1397
aI5
aa(lp4423
g923
aI2
aa(lp4424
g1432
aI1
aa(lp4425
g701
aI1
aa(lp4426
g2358
aI1
aa(lp4427
g2463
aI1
aa(lp4428
g808
aI1
aa(lp4429
g2259
aI1
aa(lp4430
g1297
aI1
aa(lp4431
g1407
aI1
aa(lp4432
g1937
aI3
aa(lp4433
g608
aI3
aa(lp4434
g2182
aI1
aa(lp4435
g389
aI1
aa(lp4436
g395
aI4
aa(lp4437
g377
aI1
aa(lp4438
g871
aI1
aa(lp4439
g1994
aI2
aa(lp4440
g1117
aI2
aa(lp4441
g228
aI1
aa(lp4442
g500
aI8
aa(lp4443
g2038
aI6
aa(lp4444
g1881
aI8
aa(lp4445
g796
aI3
aa(lp4446
g2497
aI1
aa(lp4447
g39
aI2
aa(lp4448
g1313
aI1
aa(lp4449
g1419
aI1
aa(lp4450
g286
aI6
aa(lp4451
g1776
aI1
aa(lp4452
g726
aI4
aa(lp4453
g254
aI2
aa(lp4454
g1065
aI1
aa(lp4455
g2151
aI9
aa(lp4456
g878
aI2
aa(lp4457
g209
aI1
aa(lp4458
g1222
aI3
aa(lp4459
g2273
aI1
aa(lp4460
g2363
aI1
aa(lp4461
g1143
aI2
aa(lp4462
g572
aI2
aa(lp4463
g219
aI1
aa(lp4464
g2414
aI2
aa(lp4465
g2062
aI2
aa(lp4466
g2575
aI1
aa(lp4467
g1121
aI1
aa(lp4468
g1844
aI1
aa(lp4469
g1768
aI3
aa(lp4470
g563
aI4
aa(lp4471
g427
aI1
aa(lp4472
g730
aI1
aa(lp4473
g1998
aI1
aa(lp4474
g1837
aI7
aa(lp4475
g403
aI2
aa(lp4476
g1085
aI1
aa(lp4477
g927
aI2
aa(lp4478
g2050
aI1
aa(lp4479
g1171
aI2
aa(lp4480
g2389
aI1
aa(lp4481
g856
aI2
aa(lp4482
g1458
aI2
aa(lp4483
g188
aI1
aa(lp4484
g271
aI1
aa(lp4485
g1126
aI2
aa(lp4486
g2507
aI1
aa(lp4487
g1666
aI1
aa(lp4488
g1681
aI1
aa(lp4489
g2278
aI3
aa(lp4490
g1288
aI1
aa(lp4491
g859
aI1
aa(lp4492
g916
aI1
aa(lp4493
g2471
aI1
aa(lp4494
g388
aI2
aa(lp4495
g1158
aI2
aa(lp4496
g300
aI2
aa(lp4497
g277
aI4
aa(lp4498
g2336
aI2
aa(lp4499
g2141
aI1
aa(lp4500
g2536
aI1
aa(lp4501
g1622
aI1
aa(lp4502
g1239
aI1
aa(lp4503
g1924
aI1
aa(lp4504
g2562
aI3
aa(lp4505
g2425
aI1
aa(lp4506
g680
aI1
aa(lp4507
g346
aI1
aa(lp4508
g442
aI1
aa(lp4509
g1106
aI1
aa(lp4510
g195
aI1
aa(lp4511
g786
aI1
aa(lp4512
g663
aI1
aa(lp4513
g1565
aI2
aa(lp4514
g450
aI1
aa(lp4515
g1205
aI4
aa(lp4516
g789
aI1
aa(lp4517
g1321
aI3
aa(lp4518
g1492
aI8
aa(lp4519
g2283
aI2
aa(lp4520
g1608
aI1
aa(lp4521
g694
aI1
aa(lp4522
g1100
aI1
aa(lp4523
g797
aI1
aa(lp4524
g417
aI3
aa(lp4525
g959
aI1
aa(lp4526
g1012
aI1
aa(lp4527
g2128
aI1
aa(lp4528
g126
aI1
aa(lp4529
g2186
aI1
aa(lp4530
g125
aI1
aa(lp4531
g2292
aI1
aa(lp4532
g827
aI3
aa(lp4533
g972
aI3
aa(lp4534
g531
aI1
aa(lp4535
g2078
aI3
aa(lp4536
g1442
aI2
aa(lp4537
g408
aI5
aa(lp4538
g1839
aI3
aa(lp4539
g2289
aI10
aa(lp4540
g2088
aI2
aa(lp4541
g553
aI1
aa(lp4542
g2206
aI1
aa(lp4543
g908
aI1
aa(lp4544
g2131
aI2
aa(lp4545
g1950
aI2
aa(lp4546
g2017
aI1
aa(lp4547
g413
aI2
aa(lp4548
g961
aI1
aa(lp4549
g1160
aI1
aa(lp4550
g88
aI3
aa(lp4551
g983
aI2
aa(lp4552
g1799
aI1
aa(lp4553
g1032
aI1
aa(lp4554
g863
aI1
aa(lp4555
g1537
aI1
aa(lp4556
g1259
aI9
aa(lp4557
g1623
aI63
aa(lp4558
g1363
aI2
aa(lp4559
g215
aI1
aa(lp4560
g2013
aI5
aa(lp4561
g2162
aI2
aa(lp4562
g1642
aI2
aa(lp4563
g2572
aI5
aa(lp4564
g2072
aI1
aa(lp4565
g1024
aI1
aa(lp4566
g1961
aI2
aa(lp4567
g1320
aI1
aa(lp4568
g1746
aI12
aa(lp4569
g1792
aI5
aa(lp4570
g995
aI3
aa(lp4571
g914
aI3
aa(lp4572
g121
aI1
aa(lp4573
g2332
aI1
aa(lp4574
g1948
aI1
aa(lp4575
g2404
aI1
aa(lp4576
g2412
aI1
aa(lp4577
g1347
aI4
aa(lp4578
g578
aI1
aa(lp4579
g496
aI1
aa(lp4580
g1030
aI5
aa(lp4581
g1688
aI1
aa(lp4582
g2055
aI1
aa(lp4583
g1842
aI1
aa(lp4584
g904
aI1
aa(lp4585
g475
aI3
aa(lp4586
g67
aI1
aa(lp4587
g1122
aI1
aa(lp4588
g485
aI1
aa(lp4589
g822
aI1
aa(lp4590
g1942
aI1
aa(lp4591
g1675
aI2
aa(lp4592
g101
aI1
aa(lp4593
g1934
aI3
aa(lp4594
g1095
aI5
aa(lp4595
g1221
aI3
aa(lp4596
g525
aI1
aa(lp4597
g1970
aI2
aa(lp4598
g807
aI1
aa(lp4599
g2528
aI2
aa(lp4600
g55
aI1
aa(lp4601
g661
aI1
aa(lp4602
g1465
aI1
aa(lp4603
g2095
aI1
aa(lp4604
g1494
aI3
aa(lp4605
g232
aI1
aa(lp4606
g530
aI2
aa(lp4607
g1628
aI1
aa(lp4608
g2104
aI4
aa(lp4609
g2153
aI1
aa(lp4610
g1041
aI1
aa(lp4611
g2457
aI5
aa(lp4612
g2025
aI2
aa(lp4613
g892
aI3
aa(lp4614
g2256
aI1
aa(lp4615
g1900
aI1
aa(lp4616
g1044
aI7
aa(lp4617
g1115
aI1
aa(lp4618
g917
aI1
aa(lp4619
g1360
aI2
aa(lp4620
g1860
aI1
aa(lp4621
g1535
aI2
aa(lp4622
g1260
aI1
aa(lp4623
g2155
aI1
aa(lp4624
g2512
aI1
aa(lp4625
g1777
aI1
aa(lp4626
g1985
aI1
aa(lp4627
g1700
aI1
aa(lp4628
g1528
aI1
aa(lp4629
g406
aI4
aa(lp4630
g458
aI1
aa(lp4631
g713
aI3
aa(lp4632
g423
aI2
aa(lp4633
g2420
aI1
aa(lp4634
g2156
aI1
aa(lp4635
g226
aI2
aa(lp4636
g419
aI2
aa(lp4637
g2044
aI1
aa(lp4638
g1062
aI2
aa(lp4639
g647
aI1
aa(lp4640
g2469
aI3
aa(lp4641
g2378
aI1
aa(lp4642
g1055
aI1
aa(lp4643
g2094
aI1
aa(lp4644
g1545
aI1
aa(lp4645
g481
aI1
aa(lp4646
g135
aI1
aa(lp4647
g763
aI1
aa(lp4648
g1325
aI1
aa(lp4649
g1283
aI1
aa(lp4650
g974
aI1
aa(lp4651
g1103
aI1
aa(lp4652
g2057
aI1
aa(lp4653
g1075
aI1
aa(lp4654
g288
aI3
aa(lp4655
g2174
aI1
aa(lp4656
g1756
aI1
aa(lp4657
g499
aI1
aa(lp4658
g623
aI2
aa(lp4659
g1179
aI1
aa(lp4660
g2041
aI1
aa(lp4661
g2335
aI1
aa(lp4662
g1635
aI6
aa(lp4663
g941
aI1
aa(lp4664
g1413
aI1
aa(lp4665
g1159
aI1
aa(lp4666
g605
aI2
aa(lp4667
g1674
aI1
aa(lp4668
g731
aI1
aa(lp4669
g1764
aI2
aa(lp4670
g1266
aI1
aa(lp4671
g717
aI1
aa(lp4672
g1531
aI1
aa(lp4673
g2268
aI2
aa(lp4674
g1440
aI1
aa(lp4675
g1563
aI3
aa(lp4676
g521
aI1
aa(lp4677
g1245
aI1
aa(lp4678
g1640
aI1
aa(lp4679
g913
aI2
aa(lp4680
g575
aI2
aa(lp4681
g266
aI2
aa(lp4682
g455
aI1
aa(lp4683
g1952
aI56
aa(lp4684
g915
aI59
aa(lp4685
g1410
aI1
aa(lp4686
g1578
aI1
aa(lp4687
g767
aI1
aa(lp4688
g2548
aI2
aa(lp4689
g2042
aI1
aa(lp4690
g802
aI1
aa(lp4691
g394
aI1
aa(lp4692
g268
aI1
aa(lp4693
g2203
aI1
aa(lp4694
g344
aI2
aa(lp4695
g1749
aI1
aa(lp4696
g774
aI1
aa(lp4697
g20
aI2
aa(lp4698
g87
aI8
aa(lp4699
g1403
aI2
aa(lp4700
g1097
aI2
aa(lp4701
g1155
aI1
aa(lp4702
g2330
aI1
aa(lp4703
g698
aI2
aa(lp4704
g2012
aI1
aa(lp4705
g557
aI1
aa(lp4706
g646
aI5
aa(lp4707
g2144
aI1
aa(lp4708
g765
aI1
aa(lp4709
g976
aI1
aa(lp4710
g2021
aI2
aa(lp4711
g247
aI2
aa(lp4712
g1956
aI3
aa(lp4713
g1294
aI1
aa(lp4714
g212
aI1
aa(lp4715
g1663
aI1
aa(lp4716
g1303
aI2
aa(lp4717
g937
aI1
aa(lp4718
g476
aI1
aa(lp4719
g1581
aI2
aa(lp4720
g1049
aI1
aa(lp4721
g841
aI1
aa(lp4722
g714
aI1
aa(lp4723
g925
aI1
aa(lp4724
g664
aI1
aa(lp4725
g1957
aI1
aa(lp4726
g473
aI1
aa(lp4727
g68
aI4
aa(lp4728
g1317
aI1
aa(lp4729
g2139
aI1
aa(lp4730
g371
aI1
aa(lp4731
g951
aI1
aa(lp4732
g700
aI2
aa(lp4733
g1527
aI1
aa(lp4734
g1502
aI1
aa(lp4735
g2130
aI1
aa(lp4736
g728
aI1
aa(lp4737
g1761
aI1
aa(lp4738
g1744
aI1
aa(lp4739
g1128
aI2
aa(lp4740
g1446
aI1
aa(lp4741
g330
aI1
aa(lp4742
g1539
aI2
aa(lp4743
g759
aI55
aa(lp4744
g324
aI2
aa(lp4745
g654
aI1
aa(lp4746
g757
aI1
aa(lp4747
g2047
aI1
aa(lp4748
g1319
aI1
aa(lp4749
g1315
aI2
aa(lp4750
g2462
aI1
aa(lp4751
g1074
aI1
aa(lp4752
g2449
aI1
aa(lp4753
g911
aI1
aa(lp4754
g809
aI2
aa(lp4755
g2223
aI1
aa(lp4756
g2341
aI2
aa(lp4757
g1752
aI1
aa(lp4758
g1949
aI1
aa(lp4759
g1197
aI1
aa(lp4760
g515
aI1
aa(lp4761
g1551
aI2
aa(lp4762
g205
aI1
aa(lp4763
g36
aI6
aa(lp4764
g1414
aI3
aa(lp4765
g2035
aI1
aa(lp4766
g526
aI1
aa(lp4767
g1031
aI1
aa(lp4768
g631
aI2
aa(lp4769
g2574
aI1
aa(lp4770
g358
aI1
aa(lp4771
g1650
aI2
aa(lp4772
g888
aI1
aa(lp4773
g766
aI1
aa(lp4774
g791
aI1
aa(lp4775
g314
aI2
aa(lp4776
g1326
aI1
aa(lp4777
g2160
aI1
aa(lp4778
g239
aI1
aa(lp4779
g956
aI1
aa(lp4780
g2432
aI1
aa(lp4781
g1698
aI1
aa(lp4782
g230
aI2
aa(lp4783
g606
aI1
aa(lp4784
g1270
aI1
aa(lp4785
g2199
aI1
aa(lp4786
g2246
aI1
aa(lp4787
g1919
aI1
aa(lp4788
g1130
aI1
aa(lp4789
g2049
aI1
aa(lp4790
g1019
aI1
aa(lp4791
g1540
aI2
aa(lp4792
g820
aI1
aa(lp4793
g308
aI1
aa(lp4794
g2276
aI1
aa(lp4795
g2228
aI1
aa(lp4796
g295
aI1
aa(lp4797
g2355
aI1
aa(lp4798
g2333
aI3
aa(lp4799
g1354
aI1
aa(lp4800
g1173
aI3
aa(lp4801
g98
aI1
aa(lp4802
g2331
aI1
aa(lp4803
g2003
aI1
aa(lp4804
g848
aI1
aa(lp4805
g103
aI1
aa(lp4806
g1693
aI1
aa(lp4807
g444
aI1
aa(lp4808
g198
aI1
aa(lp4809
g2377
aI1
aa(lp4810
g2405
aI1
aa(lp4811
g407
aI1
aa(lp4812
g1703
aI1
aa(lp4813
g1235
aI7
aa(lp4814
g540
aI4
aa(lp4815
g2157
aI1
aa(lp4816
g2198
aI4
aa(lp4817
g203
aI1
aa(lp4818
g90
aI1
aa(lp4819
g1612
aI2
aa(lp4820
g1938
aI1
aa(lp4821
g2500
aI1
aa(lp4822
g2179
aI2
aa(lp4823
g678
aI13
aa(lp4824
g614
aI1
aa(lp4825
g2150
aI1
aa(lp4826
g34
aI1
aa(lp4827
g1148
aI2
aa(lp4828
g1889
aI1
aa(lp4829
g601
aI1
aa(lp4830
g2388
aI1
aa(lp4831
g944
aI3
aa(lp4832
g2391
aI1
aa(lp4833
g743
aI1
aa(lp4834
g1827
aI7
aa(lp4835
g1988
aI1
aa(lp4836
g895
aI1
aa(lp4837
g1875
aI1
aa(lp4838
g1940
aI1
aa(lp4839
g1290
aI1
aa(lp4840
g813
aI3
aa(lp4841
g1763
aI1
aa(lp4842
g1683
aI1
aa(lp4843
g1643
aI2
aa(lp4844
g674
aI2
aa(lp4845
g373
aI3
aa(lp4846
g2329
aI1
aa(lp4847
g1133
aI3
aa(lp4848
g1977
aI8
aa(lp4849
g1811
aI3
aa(lp4850
g1593
aI4
aa(lp4851
g2346
aI1
aa(lp4852
g111
aI9
aa(lp4853
g289
aI1
aa(lp4854
g2356
aI1
aa(lp4855
g1626
aI2
aa(lp4856
g720
aI1
aa(lp4857
g1274
aI1
aa(lp4858
g780
aI1
aa(lp4859
g918
aI1
aa(lp4860
g1596
aI2
aa(lp4861
g897
aI3
aa(lp4862
g144
aI4
aa(lp4863
g1585
aI1
aa(lp4864
g1902
aI1
aa(lp4865
g24
aI1
aa(lp4866
g1375
aI1
aa(lp4867
g304
aI1
aa(lp4868
g1254
aI1
aa(lp4869
g489
aI2
aa(lp4870
g1864
aI3
aa(lp4871
g2105
aI1
aa(lp4872
g1257
aI1
aa(lp4873
g1818
aI1
aa(lp4874
g1971
aI1
aa(lp4875
g367
aI1
aa(lp4876
g2492
aI1
aa(lp4877
g2248
aI1
aa(lp4878
g1619
aI2
aa(lp4879
g588
aI1
aa(lp4880
g2578
aI1
aa(lp4881
g2202
aI1
aa(lp4882
g2577
aI1
aa(lp4883
g2483
aI1
aa(lp4884
g2300
aI1
aa(lp4885
g988
aI2
aa(lp4886
g1857
aI3
aa(lp4887
g2191
aI1
aa(lp4888
g1769
aI1
aa(lp4889
g1884
aI1
aa(lp4890
g671
aI1
aa(lp4891
g1300
aI2
aa(lp4892
g1468
aI1
aa(lp4893
g2255
aI1
aa(lp4894
g1583
aI1
aa(lp4895
g1341
aI1
aa(lp4896
g1212
aI3
aa(lp4897
g1225
aI1
aa(lp4898
g438
aI1
aa(lp4899
g82
aI1
aa(lp4900
g40
aI2
aa(lp4901
g2058
aI1
aa(lp4902
g2502
aI3
aa(lp4903
g2437
aI3
aa(lp4904
g790
aI1
aa(lp4905
g2545
aI3
aa(lp4906
g2490
aI1
aa(lp4907
g311
aI1
aa(lp4908
g193
aI1
aa(lp4909
g1472
aI1
aa(lp4910
g2360
aI1
aa(lp4911
g622
aI1
aa(lp4912
g579
aI1
aa(lp4913
g400
aI1
aa(lp4914
g611
aI1
aa(lp4915
g2166
aI1
aa(lp4916
g2521
aI1
aa(lp4917
g642
aI1
aa(lp4918
g445
aI1
aa(lp4919
g2084
aI1
aa(lp4920
g2180
aI1
aa(lp4921
g1637
aI1
aa(lp4922
g1533
aI5
aa(lp4923
g2311
aI4
aa(lp4924
g1167
aI4
aa(lp4925
g594
aI7
aa(lp4926
g795
aI7
aa(lp4927
g1967
aI6
aa(lp4928
g1131
aI2
aa(lp4929
g1081
aI2
aa(lp4930
g958
aI1
aa(lp4931
g1791
aI1
aa(lp4932
g2097
aI1
aa(lp4933
g1958
aI1
aa(lp4934
g1648
aI1
aa(lp4935
g957
aI1
aa(lp4936
g821
aI2
aa(lp4937
g1000
aI7
aa(lp4938
g282
aI1
aa(lp4939
g2446
aI1
aa(lp4940
g860
aI1
aa(lp4941
g2067
aI1
aa(lp4942
g2484
aI1
aa(lp4943
g1418
aI1
aa(lp4944
g2506
aI1
aa(lp4945
g2123
aI3
aa(lp4946
g2531
aI2
aa(lp4947
g2436
aI2
aa(lp4948
g1478
aI18
aa(lp4949
g2564
aI1
aa(lp4950
g1390
aI1
aa(lp4951
g1679
aI1
aa(lp4952
g2054
aI2
aa(lp4953
g1898
aI1
aa(lp4954
g887
aI1
aa(lp4955
g2254
aI1
aa(lp4956
g617
aI1
aa(lp4957
g1181
aI4
aa(lp4958
g2514
aI1
aa(lp4959
g2143
aI1
aa(lp4960
g2037
aI8
aa(lp4961
g2305
aI1
aa(lp4962
g514
aI3
aa(lp4963
g2408
aI1
aa(lp4964
g2370
aI1
aa(lp4965
g2171
aI1
aa(lp4966
g2082
aI2
aa(lp4967
g1993
aI1
aa(lp4968
g2509
aI2
aa(lp4969
g936
aI1
aa(lp4970
g196
aI1
aa(lp4971
g1124
aI1
aa(lp4972
g370
aI2
aa(lp4973
g1109
aI2
aa(lp4974
g1189
aI2
aa(lp4975
g2008
aI4
aa(lp4976
g2196
aI10
aa(lp4977
g1088
aI3
aa(lp4978
g1987
aI2
aa(lp4979
g457
aI1
aa(lp4980
g2032
aI1
aa(lp4981
g2234
aI1
aa(lp4982
g1706
aI3
aa(lp4983
g1104
aI1
aa(lp4984
g1232
aI1
aa(lp4985
g1234
aI1
aa(lp4986
g243
aI1
aa(lp4987
g523
aI1
aa(lp4988
g1778
aI1
aa(lp4989
g1417
aI1
aa(lp4990
g1188
aI1
aa(lp4991
g637
aI7
aa(lp4992
g838
aI1
aa(lp4993
g1359
aI1
aa(lp4994
g762
aI1
aa(lp4995
g1460
aI1
aa(lp4996
g2019
aI1
aa(lp4997
g1256
aI1
aa(lp4998
g946
aI1
aa(lp4999
g53
aI1
aa(lp5000
g323
aI1
aa(lp5001
g292
aI2
aa(lp5002
g1645
aI4
aa(lp5003
g1377
aI3
aa(lp5004
g1101
aI2
aa(lp5005
g2107
aI1
aa(lp5006
g250
aI1
aa(lp5007
g436
aI1
aa(lp5008
g2275
aI2
aa(lp5009
g561
aI1
aa(lp5010
g376
aI2
aa(lp5011
g1529
aI1
aa(lp5012
g1132
aI4
aa(lp5013
g928
aI1
aa(lp5014
g1627
aI1
aa(lp5015
g2140
aI1
aa(lp5016
g1343
aI1
aa(lp5017
g583
aI1
aa(lp5018
g2491
aI1
aa(lp5019
g336
aI1
aa(lp5020
g1337
aI1
aa(lp5021
g1868
aI1
aa(lp5022
g1821
aI1
aa(lp5023
g541
aI1
aa(lp5024
g2379
aI2
aa(lp5025
g1147
aI1
aa(lp5026
g2415
aI1
aa(lp5027
g2101
aI1
aa(lp5028
g2052
aI1
aa(lp5029
g2556
aI1
aa(lp5030
g811
aI2
aa(lp5031
g1892
aI1
aa(lp5032
g2302
aI1
aa(lp5033
g260
aI1
aa(lp5034
g1142
aI1
aa(lp5035
g842
aI1
aa(lp5036
g659
aI1
aa(lp5037
g2030
aI1
aa(lp5038
g1910
aI4
aa(lp5039
g955
aI1
aa(lp5040
g214
aI1
aa(lp5041
g2189
aI1
aa(lp5042
g558
aI2
aa(lp5043
g1559
aI1
aa(lp5044
g1738
aI1
aa(lp5045
g401
aI2
aa(lp5046
g1223
aI1
aa(lp5047
g1547
aI1
aa(lp5048
g1067
aI1
aa(lp5049
g1015
aI1
aa(lp5050
g1018
aI1
aa(lp5051
g1013
aI1
aa(lp5052
g383
aI1
aa(lp5053
g1914
aI1
aa(lp5054
g2004
aI1
aa(lp5055
g1033
aI1
aa(lp5056
g2541
aI1
aa(lp5057
g180
aI1
aa(lp5058
g1455
aI1
aa(lp5059
g1066
aI5
aa(lp5060
g2002
aI1
aa(lp5061
g513
aI2
aa(lp5062
g240
aI1
aa(lp5063
g218
aI1
aa(lp5064
g1176
aI1
aa(lp5065
g683
aI2
aa(lp5066
g2039
aI1
aa(lp5067
g17
aI1
aa(lp5068
g2272
aI2
aa(lp5069
g1933
aI2
aa(lp5070
g508
aI4
aa(lp5071
g1412
aI1
aa(lp5072
g1098
aI1
aa(lp5073
g1264
aI1
aa(lp5074
g1899
aI1
aa(lp5075
g2533
aI2
aa(lp5076
g727
aI1
aa(lp5077
g1287
aI1
aa(lp5078
g947
aI1
aa(lp5079
g1425
aI1
aa(lp5080
g1151
aI2
aa(lp5081
g1726
aI1
aa(lp5082
g276
aI1
aa(lp5083
g673
aI1
aa(lp5084
g131
aI2
aa(lp5085
g2045
aI1
aa(lp5086
g2285
aI1
aa(lp5087
g1572
aI1
aa(lp5088
g170
aI3
aa(lp5089
g117
aI1
aa(lp5090
g1877
aI1
aa(lp5091
g1762
aI1
aa(lp5092
g1979
aI1
aa(lp5093
g1927
aI2
aa(lp5094
g616
aI1
aa(lp5095
g11
aI1
aa(lp5096
g1269
aI1
aa(lp5097
g69
aI1
aa(lp5098
g1026
aI1
aa(lp5099
g2225
aI1
aa(lp5100
g2134
aI1
aa(lp5101
g662
aI1
aa(lp5102
g2549
aI1
aa(lp5103
g2218
aI1
aa(lp5104
g1574
aI1
aa(lp5105
g748
aI1
aa(lp5106
g564
aI1
aa(lp5107
g792
aI1
aa(lp5108
g1954
aI1
aa(lp5109
g1544
aI1
aa(lp5110
g1838
aI1
aa(lp5111
g1609
aI2
aa(lp5112
g648
aI1
aa(lp5113
g1273
aI1
aa(lp5114
g164
aI1
aa(lp5115
g1826
aI1
aa(lp5116
g635
aI1
aa(lp5117
g2308
aI1
aa(lp5118
g1471
aI1
aa(lp5119
g225
aI1
aa(lp5120
g1972
aI1
aa(lp5121
g1543
aI1
aa(lp5122
g2566
aI2
aa(lp5123
g1695
aI1
aa(lp5124
g1729
aI1
aa(lp5125
g840
aI1
aa(lp5126
g1802
aI1
aa(lp5127
g2033
aI1
aa(lp5128
g1653
aI1
aa(lp5129
g2214
aI1
aa(lp5130
g626
aI1
aa(lp5131
g2112
aI1
aa(lp5132
g2570
aI1
aa(lp5133
g970
aI1
aa(lp5134
g480
aI1
aa(lp5135
g2434
aI1
aa(lp5136
g1685
aI1
aa(lp5137
g2149
aI1
aa(lp5138
g2220
aI1
aa(lp5139
g2136
aI1
aa(lp5140
g2211
aI1
aa(lp5141
g1216
aI1
aa(lp5142
g375
aI1
aa(lp5143
g1720
aI1
aa(lp5144
g2573
aI1
aa(lp5145
g2381
aI1
aa(lp5146
g869
aI1
aa(lp5147
g787
aI1
aa(lp5148
g155
aI1
aa(lp5149
g2277
aI1
aa(lp5150
g535
aI1
aa(lp5151
g1042
aI1
aa(lp5152
g454
aI1
aa(lp5153
g610
aI1
aatp5154
Rp5155
sS'split'
p5156
S' '
p5157
sS'filters'
p5158
S'!"#$%&()*+,-./:;<=>?@[\\]^_`{|}~\t\n'
p5159
sS'word_docs'
p5160
(dp5161
g9
I1
sg10
I1
sg11
I1
sg12
I1
sg13
I1
sg14
I1
sg15
I1
sg16
I1
sg17
I1
sg18
I1
sg19
I1
sg1347
I1
sg21
I1
sg22
I1
sg75
I1
sg24
I1
sg25
I1
sg1308
I1
sg26
I1
sg27
I1
sg28
I1
sg29
I1
sg30
I1
sg31
I1
sg32
I1
sg1350
I1
sg172
I1
sg36
I1
sg37
I1
sg38
I1
sg39
I1
sg40
I1
sg41
I1
sg42
I1
sg43
I1
sg44
I1
sg45
I1
sg46
I1
sg47
I1
sg48
I1
sg49
I1
sg50
I1
sg51
I1
sg52
I1
sg1786
I1
sg54
I1
sg55
I1
sg56
I1
sg57
I1
sg58
I1
sg59
I1
sg60
I1
sg61
I1
sg62
I1
sg63
I1
sg64
I1
sg65
I1
sg66
I1
sg67
I1
sg68
I1
sg69
I1
sg70
I1
sg71
I1
sg72
I1
sg2198
I1
sg73
I1
sg74
I1
sg23
I1
sg76
I1
sg77
I1
sg495
I1
sg79
I1
sg80
I1
sg518
I1
sg82
I1
sg83
I1
sg84
I1
sg85
I1
sg86
I1
sg87
I1
sg88
I1
sg89
I1
sg90
I1
sg91
I1
sg92
I1
sg93
I1
sg94
I1
sg608
I1
sg96
I1
sg1795
I1
sg98
I1
sg99
I1
sg100
I1
sg101
I1
sg102
I1
sg103
I1
sg104
I1
sg719
I1
sg106
I1
sg107
I1
sg108
I1
sg693
I1
sg110
I1
sg111
I1
sg112
I1
sg113
I1
sg114
I1
sg115
I1
sg116
I1
sg1796
I1
sg118
I1
sg119
I1
sg763
I1
sg121
I1
sg122
I1
sg123
I1
sg124
I1
sg125
I1
sg126
I1
sg128
I1
sg129
I1
sg1604
I1
sg1367
I1
sg132
I1
sg133
I1
sg948
I1
sg135
I1
sg136
I1
sg1078
I1
sg1368
I1
sg138
I1
sg139
I1
sg140
I1
sg141
I1
sg142
I1
sg143
I1
sg144
I1
sg145
I1
sg146
I1
sg147
I1
sg148
I1
sg149
I1
sg150
I1
sg151
I1
sg152
I1
sg153
I1
sg154
I1
sg155
I1
sg156
I1
sg157
I1
sg158
I1
sg159
I1
sg160
I1
sg161
I1
sg162
I1
sg163
I1
sg1053
I1
sg164
I1
sg165
I1
sg166
I1
sg167
I1
sg168
I1
sg169
I1
sg170
I1
sg171
I1
sg839
I1
sg173
I1
sg174
I1
sg175
I1
sg176
I1
sg177
I1
sg178
I1
sg179
I1
sg180
I1
sg181
I1
sg182
I1
sg604
I1
sg183
I1
sg184
I1
sg185
I1
sg186
I1
sg187
I1
sg188
I1
sg189
I1
sg190
I1
sg1210
I1
sg192
I1
sg193
I1
sg194
I1
sg196
I1
sg197
I1
sg199
I1
sg200
I1
sg201
I1
sg202
I1
sg203
I1
sg204
I1
sg1270
I1
sg206
I1
sg207
I1
sg1378
I1
sg209
I1
sg210
I1
sg211
I1
sg212
I1
sg966
I1
sg1379
I1
sg215
I1
sg216
I1
sg217
I1
sg218
I1
sg219
I1
sg220
I1
sg221
I1
sg1359
I1
sg2555
I1
sg656
I1
sg969
I1
sg225
I1
sg226
I1
sg227
I1
sg2334
I1
sg228
I1
sg229
I1
sg230
I1
sg2228
I1
sg231
I1
sg232
I1
sg234
I1
sg235
I1
sg236
I1
sg237
I1
sg238
I1
sg239
I1
sg240
I1
sg241
I1
sg242
I1
sg2550
I1
sg243
I1
sg1657
I1
sg245
I1
sg246
I1
sg975
I1
sg248
I1
sg249
I1
sg250
I1
sg251
I1
sg252
I1
sg253
I1
sg254
I1
sg255
I1
sg256
I1
sg257
I1
sg258
I1
sg926
I1
sg259
I1
sg260
I1
sg261
I1
sg2240
I1
sg262
I1
sg263
I1
sg264
I1
sg265
I1
sg266
I1
sg267
I1
sg268
I1
sg269
I1
sg270
I1
sg271
I1
sg272
I1
sg273
I1
sg274
I1
sg275
I1
sg276
I1
sg277
I1
sg278
I1
sg279
I1
sg280
I1
sg281
I1
sg282
I1
sg283
I1
sg284
I1
sg285
I1
sg286
I1
sg287
I1
sg980
I1
sg289
I1
sg290
I1
sg291
I1
sg293
I1
sg294
I1
sg295
I1
sg296
I1
sg297
I1
sg298
I1
sg299
I1
sg300
I1
sg301
I1
sg302
I1
sg303
I1
sg304
I1
sg305
I1
sg306
I1
sg307
I1
sg308
I1
sg309
I1
sg310
I1
sg311
I1
sg2236
I1
sg313
I1
sg314
I1
sg315
I1
sg1906
I1
sg317
I1
sg318
I1
sg319
I1
sg320
I1
sg321
I1
sg322
I1
sg986
I1
sg1398
I1
sg325
I1
sg326
I1
sg327
I1
sg328
I1
sg329
I1
sg330
I1
sg331
I1
sg1952
I1
sg332
I1
sg333
I1
sg334
I1
sg335
I1
sg336
I1
sg337
I1
sg338
I1
sg1341
I1
sg340
I1
sg341
I1
sg342
I1
sg343
I1
sg344
I1
sg2080
I1
sg346
I1
sg347
I1
sg348
I1
sg349
I1
sg350
I1
sg351
I1
sg352
I1
sg353
I1
sg354
I1
sg355
I1
sg356
I1
sg357
I1
sg1402
I1
sg359
I1
sg360
I1
sg361
I1
sg362
I1
sg363
I1
sg364
I1
sg365
I1
sg366
I1
sg367
I1
sg368
I1
sg369
I1
sg370
I1
sg371
I1
sg372
I1
sg2249
I1
sg374
I1
sg375
I1
sg376
I1
sg377
I1
sg378
I1
sg379
I1
sg380
I1
sg381
I1
sg382
I1
sg383
I1
sg384
I1
sg385
I1
sg386
I1
sg757
I1
sg388
I1
sg389
I1
sg390
I1
sg391
I1
sg392
I1
sg393
I1
sg394
I1
sg395
I1
sg396
I1
sg397
I1
sg2364
I1
sg399
I1
sg400
I1
sg401
I1
sg402
I1
sg403
I1
sg404
I1
sg2390
I1
sg406
I1
sg407
I1
sg408
I1
sg409
I1
sg410
I1
sg411
I1
sg412
I1
sg413
I1
sg998
I1
sg415
I1
sg416
I1
sg417
I1
sg418
I1
sg1839
I1
sg420
I1
sg421
I1
sg422
I1
sg423
I1
sg424
I1
sg2517
I1
sg427
I1
sg428
I1
sg429
I1
sg430
I1
sg431
I1
sg432
I1
sg433
I1
sg520
I1
sg435
I1
sg436
I1
sg438
I1
sg439
I1
sg440
I1
sg441
I1
sg442
I1
sg522
I1
sg444
I1
sg1006
I1
sg446
I1
sg447
I1
sg448
I1
sg835
I1
sg450
I1
sg451
I1
sg452
I1
sg453
I1
sg454
I1
sg455
I1
sg456
I1
sg2257
I1
sg458
I1
sg459
I1
sg460
I1
sg461
I1
sg462
I1
sg2258
I1
sg464
I1
sg465
I1
sg466
I1
sg467
I1
sg468
I1
sg469
I1
sg470
I1
sg471
I1
sg472
I1
sg2260
I1
sg474
I1
sg475
I1
sg476
I1
sg477
I1
sg478
I1
sg1847
I1
sg480
I1
sg481
I1
sg482
I1
sg483
I1
sg484
I1
sg485
I1
sg486
I1
sg487
I1
sg488
I1
sg489
I1
sg490
I1
sg491
I1
sg492
I1
sg493
I1
sg494
I1
sg78
I1
sg496
I1
sg497
I1
sg498
I1
sg499
I1
sg500
I1
sg501
I1
sg502
I1
sg503
I1
sg504
I1
sg505
I1
sg506
I1
sg507
I1
sg508
I1
sg509
I1
sg510
I1
sg511
I1
sg512
I1
sg1014
I1
sg514
I1
sg515
I1
sg516
I1
sg517
I1
sg977
I1
sg918
I1
sg521
I1
sg443
I1
sg523
I1
sg524
I1
sg525
I1
sg526
I1
sg527
I1
sg528
I1
sg529
I1
sg530
I1
sg531
I1
sg532
I1
sg533
I1
sg534
I1
sg535
I1
sg536
I1
sg537
I1
sg538
I1
sg539
I1
sg540
I1
sg541
I1
sg542
I1
sg543
I1
sg545
I1
sg546
I1
sg547
I1
sg548
I1
sg549
I1
sg550
I1
sg551
I1
sg552
I1
sg553
I1
sg554
I1
sg555
I1
sg1023
I1
sg557
I1
sg559
I1
sg560
I1
sg561
I1
sg562
I1
sg563
I1
sg564
I1
sg565
I1
sg566
I1
sg567
I1
sg568
I1
sg569
I1
sg570
I1
sg571
I1
sg572
I1
sg1449
I1
sg573
I1
sg574
I1
sg575
I1
sg762
I1
sg577
I1
sg578
I1
sg579
I1
sg580
I1
sg581
I1
sg582
I1
sg583
I1
sg584
I1
sg585
I1
sg586
I1
sg587
I1
sg588
I1
sg2099
I1
sg589
I1
sg590
I1
sg883
I1
sg592
I1
sg895
I1
sg594
I1
sg595
I1
sg596
I1
sg907
I1
sg598
I1
sg599
I1
sg600
I1
sg602
I1
sg603
I1
sg792
I1
sg605
I1
sg606
I1
sg982
I1
sg95
I1
sg609
I1
sg610
I1
sg611
I1
sg612
I1
sg613
I1
sg614
I1
sg615
I1
sg616
I1
sg617
I1
sg1031
I1
sg619
I1
sg620
I1
sg621
I1
sg915
I1
sg623
I1
sg1055
I1
sg625
I1
sg626
I1
sg627
I1
sg628
I1
sg1988
I1
sg513
I1
sg1870
I1
sg629
I1
sg630
I1
sg1038
I1
sg632
I1
sg633
I1
sg634
I1
sg635
I1
sg636
I1
sg637
I1
sg638
I1
sg639
I1
sg640
I1
sg1874
I1
sg642
I1
sg1183
I1
sg2100
I1
sg645
I1
sg646
I1
sg647
I1
sg648
I1
sg649
I1
sg650
I1
sg651
I1
sg652
I1
sg653
I1
sg654
I1
sg1879
I1
sg657
I1
sg658
I1
sg1257
I1
sg661
I1
sg662
I1
sg663
I1
sg664
I1
sg665
I1
sg666
I1
sg667
I1
sg2254
I1
sg668
I1
sg669
I1
sg670
I1
sg2284
I1
sg785
I1
sg673
I1
sg674
I1
sg675
I1
sg1357
I1
sg677
I1
sg678
I1
sg679
I1
sg105
I1
sg681
I1
sg682
I1
sg683
I1
sg684
I1
sg685
I1
sg686
I1
sg687
I1
sg688
I1
sg689
I1
sg690
I1
sg691
I1
sg692
I1
sg109
I1
sg694
I1
sg695
I1
sg696
I1
sg697
I1
sg1456
I1
sg699
I1
sg700
I1
sg701
I1
sg702
I1
sg1405
I1
sg704
I1
sg705
I1
sg706
I1
sg707
I1
sg708
I1
sg710
I1
sg711
I1
sg712
I1
sg713
I1
sg714
I1
sg715
I1
sg716
I1
sg717
I1
sg718
I1
sg2542
I1
sg720
I1
sg721
I1
sg722
I1
sg723
I1
sg724
I1
sg725
I1
sg726
I1
sg727
I1
sg728
I1
sg729
I1
sg1887
I1
sg731
I1
sg732
I1
sg733
I1
sg734
I1
sg735
I1
sg736
I1
sg737
I1
sg738
I1
sg81
I1
sg740
I1
sg741
I1
sg742
I1
sg2293
I1
sg744
I1
sg1463
I1
sg746
I1
sg747
I1
sg2294
I1
sg748
I1
sg749
I1
sg750
I1
sg751
I1
sg752
I1
sg753
I1
sg754
I1
sg1770
I1
sg756
I1
sg758
I1
sg1942
I1
sg759
I1
sg760
I1
sg761
I1
sg576
I1
sg120
I1
sg764
I1
sg765
I1
sg766
I1
sg2298
I1
sg768
I1
sg769
I1
sg771
I1
sg772
I1
sg773
I1
sg774
I1
sg775
I1
sg776
I1
sg777
I1
sg778
I1
sg779
I1
sg780
I1
sg781
I1
sg1060
I1
sg783
I1
sg784
I1
sg1924
I1
sg786
I1
sg787
I1
sg788
I1
sg789
I1
sg790
I1
sg791
I1
sg793
I1
sg794
I1
sg795
I1
sg796
I1
sg1897
I1
sg798
I1
sg799
I1
sg800
I1
sg801
I1
sg802
I1
sg803
I1
sg804
I1
sg805
I1
sg1062
I1
sg807
I1
sg808
I1
sg809
I1
sg810
I1
sg811
I1
sg812
I1
sg813
I1
sg814
I1
sg815
I1
sg816
I1
sg2098
I1
sg818
I1
sg819
I1
sg820
I1
sg821
I1
sg822
I1
sg823
I1
sg824
I1
sg825
I1
sg826
I1
sg2309
I1
sg828
I1
sg829
I1
sg830
I1
sg831
I1
sg832
I1
sg833
I1
sg834
I1
sg836
I1
sg837
I1
sg838
I1
sg840
I1
sg841
I1
sg842
I1
sg843
I1
sg844
I1
sg845
I1
sg846
I1
sg847
I1
sg1901
I1
sg2237
I1
sg850
I1
sg851
I1
sg852
I1
sg853
I1
sg854
I1
sg855
I1
sg856
I1
sg857
I1
sg858
I1
sg859
I1
sg861
I1
sg862
I1
sg864
I1
sg1905
I1
sg866
I1
sg867
I1
sg868
I1
sg869
I1
sg870
I1
sg871
I1
sg872
I1
sg873
I1
sg874
I1
sg875
I1
sg876
I1
sg877
I1
sg878
I1
sg879
I1
sg880
I1
sg881
I1
sg882
I1
sg591
I1
sg884
I1
sg885
I1
sg886
I1
sg888
I1
sg889
I1
sg890
I1
sg891
I1
sg892
I1
sg893
I1
sg894
I1
sg593
I1
sg896
I1
sg897
I1
sg898
I1
sg899
I1
sg900
I1
sg901
I1
sg902
I1
sg903
I1
sg904
I1
sg905
I1
sg906
I1
sg2462
I1
sg908
I1
sg2215
I1
sg2148
I1
sg910
I1
sg911
I1
sg912
I1
sg913
I1
sg914
I1
sg33
I1
sg916
I1
sg917
I1
sg919
I1
sg920
I1
sg921
I1
sg922
I1
sg923
I1
sg924
I1
sg925
I1
sg2559
I1
sg927
I1
sg928
I1
sg929
I1
sg930
I1
sg931
I1
sg932
I1
sg933
I1
sg1966
I1
sg935
I1
sg2321
I1
sg937
I1
sg939
I1
sg940
I1
sg941
I1
sg942
I1
sg943
I1
sg944
I1
sg945
I1
sg947
I1
sg134
I1
sg949
I1
sg950
I1
sg952
I1
sg953
I1
sg954
I1
sg955
I1
sg957
I1
sg958
I1
sg959
I1
sg960
I1
sg961
I1
sg1914
I1
sg963
I1
sg964
I1
sg965
I1
sg213
I1
sg967
I1
sg968
I1
sg224
I1
sg970
I1
sg971
I1
sg972
I1
sg973
I1
sg974
I1
sg247
I1
sg2552
I1
sg978
I1
sg979
I1
sg288
I1
sg981
I1
sg607
I1
sg983
I1
sg984
I1
sg985
I1
sg323
I1
sg987
I1
sg988
I1
sg437
I1
sg990
I1
sg991
I1
sg992
I1
sg993
I1
sg994
I1
sg995
I1
sg996
I1
sg997
I1
sg414
I1
sg999
I1
sg1000
I1
sg1001
I1
sg1002
I1
sg1003
I1
sg1004
I1
sg1005
I1
sg445
I1
sg1007
I1
sg1008
I1
sg1009
I1
sg1010
I1
sg1011
I1
sg1012
I1
sg1013
I1
sg1346
I1
sg1015
I1
sg1016
I1
sg1017
I1
sg1018
I1
sg1084
I1
sg1020
I1
sg1021
I1
sg1022
I1
sg556
I1
sg1024
I1
sg1025
I1
sg1026
I1
sg1027
I1
sg1028
I1
sg1029
I1
sg1030
I1
sg601
I1
sg1032
I1
sg1033
I1
sg1034
I1
sg1035
I1
sg1036
I1
sg1505
I1
sg631
I1
sg1039
I1
sg1040
I1
sg1041
I1
sg2332
I1
sg1043
I1
sg1044
I1
sg1045
I1
sg1046
I1
sg1047
I1
sg1048
I1
sg1049
I1
sg1050
I1
sg1051
I1
sg1052
I1
sg1268
I1
sg1054
I1
sg624
I1
sg770
I1
sg1057
I1
sg1058
I1
sg1059
I1
sg782
I1
sg1061
I1
sg806
I1
sg1063
I1
sg1090
I1
sg1065
I1
sg1066
I1
sg1067
I1
sg1068
I1
sg1069
I1
sg1070
I1
sg1071
I1
sg1072
I1
sg1073
I1
sg1074
I1
sg1075
I1
sg1076
I1
sg1077
I1
sg1117
I1
sg1079
I1
sg1081
I1
sg1082
I1
sg1083
I1
sg1019
I1
sg1085
I1
sg1086
I1
sg1087
I1
sg1088
I1
sg1089
I1
sg1064
I1
sg1091
I1
sg1092
I1
sg1093
I1
sg1094
I1
sg1095
I1
sg1096
I1
sg1097
I1
sg1519
I1
sg1099
I1
sg1100
I1
sg1101
I1
sg1102
I1
sg1104
I1
sg1105
I1
sg1106
I1
sg1107
I1
sg1108
I1
sg1109
I1
sg1110
I1
sg1111
I1
sg1112
I1
sg1113
I1
sg1114
I1
sg1115
I1
sg1116
I1
sg2463
I1
sg1118
I1
sg1119
I1
sg1199
I1
sg1121
I1
sg1908
I1
sg1122
I1
sg1123
I1
sg1124
I1
sg1125
I1
sg1126
I1
sg1941
I1
sg1128
I1
sg1243
I1
sg1130
I1
sg1131
I1
sg1132
I1
sg1133
I1
sg1134
I1
sg1135
I1
sg1136
I1
sg1137
I1
sg1138
I1
sg2048
I1
sg1140
I1
sg1141
I1
sg1143
I1
sg1144
I1
sg1365
I1
sg1146
I1
sg1148
I1
sg1149
I1
sg1150
I1
sg1151
I1
sg1152
I1
sg1153
I1
sg1154
I1
sg1155
I1
sg1156
I1
sg2347
I1
sg1775
I1
sg1158
I1
sg1159
I1
sg1160
I1
sg1161
I1
sg1162
I1
sg1163
I1
sg1164
I1
sg1165
I1
sg1166
I1
sg1499
I1
sg1168
I1
sg1169
I1
sg1170
I1
sg1171
I1
sg1172
I1
sg1173
I1
sg1174
I1
sg1175
I1
sg1176
I1
sg1177
I1
sg1178
I1
sg2350
I1
sg1180
I1
sg1622
I1
sg137
I1
sg1182
I1
sg643
I1
sg1184
I1
sg1185
I1
sg887
I1
sg1187
I1
sg1188
I1
sg1189
I1
sg1190
I1
sg1191
I1
sg1192
I1
sg1193
I1
sg1194
I1
sg1195
I1
sg1196
I1
sg1653
I1
sg1198
I1
sg1120
I1
sg1200
I1
sg1201
I1
sg1202
I1
sg1203
I1
sg1204
I1
sg1205
I1
sg1206
I1
sg1207
I1
sg1760
I1
sg1209
I1
sg191
I1
sg1211
I1
sg1212
I1
sg1213
I1
sg1541
I1
sg1806
I1
sg1216
I1
sg1217
I1
sg1828
I1
sg1219
I1
sg1220
I1
sg1221
I1
sg1222
I1
sg1223
I1
sg1224
I1
sg1225
I1
sg1226
I1
sg1227
I1
sg1228
I1
sg1885
I1
sg1230
I1
sg1895
I1
sg1232
I1
sg1233
I1
sg1234
I1
sg1235
I1
sg1799
I1
sg1237
I1
sg1238
I1
sg1239
I1
sg1240
I1
sg1241
I1
sg1242
I1
sg1423
I1
sg1244
I1
sg946
I1
sg1246
I1
sg1247
I1
sg2226
I1
sg1248
I1
sg1249
I1
sg1250
I1
sg1251
I1
sg1252
I1
sg1253
I1
sg1254
I1
sg1255
I1
sg1256
I1
sg660
I1
sg1258
I1
sg1259
I1
sg1260
I1
sg1261
I1
sg1262
I1
sg1263
I1
sg1264
I1
sg1265
I1
sg1267
I1
sg1269
I1
sg205
I1
sg1271
I1
sg1272
I1
sg1273
I1
sg1553
I1
sg1275
I1
sg1276
I1
sg1277
I1
sg1278
I1
sg1279
I1
sg1280
I1
sg1281
I1
sg1555
I1
sg2359
I1
sg1284
I1
sg1285
I1
sg1286
I1
sg1287
I1
sg1288
I1
sg1289
I1
sg1558
I1
sg1291
I1
sg1292
I1
sg1293
I1
sg2363
I1
sg1295
I1
sg1296
I1
sg1298
I1
sg1299
I1
sg2508
I1
sg1300
I1
sg1301
I1
sg1302
I1
sg1303
I1
sg1139
I1
sg1305
I1
sg1306
I1
sg1307
I1
sg2361
I1
sg2368
I1
sg1310
I1
sg1311
I1
sg1312
I1
sg1313
I1
sg1314
I1
sg1315
I1
sg1317
I1
sg1318
I1
sg1319
I1
sg1320
I1
sg2366
I1
sg597
I1
sg1322
I1
sg1323
I1
sg1324
I1
sg1325
I1
sg1327
I1
sg672
I1
sg1329
I1
sg1330
I1
sg1331
I1
sg1332
I1
sg1333
I1
sg1334
I1
sg1335
I1
sg1336
I1
sg1337
I1
sg1338
I1
sg1339
I1
sg1340
I1
sg1975
I1
sg1343
I1
sg1344
I1
sg1345
I1
sg20
I1
sg1348
I1
sg1349
I1
sg34
I1
sg2373
I1
sg1351
I1
sg1352
I1
sg1353
I1
sg1354
I1
sg1355
I1
sg1875
I1
sg676
I1
sg1358
I1
sg425
I1
sg222
I1
sg1361
I1
sg1362
I1
sg1363
I1
sg1364
I1
sg1145
I1
sg1366
I1
sg131
I1
sg233
I1
sg1369
I1
sg1370
I1
sg1371
I1
sg1372
I1
sg1373
I1
sg1374
I1
sg1375
I1
sg1376
I1
sg1377
I1
sg208
I1
sg214
I1
sg1380
I1
sg1381
I1
sg1382
I1
sg1383
I1
sg1384
I1
sg1385
I1
sg1386
I1
sg1387
I1
sg1388
I1
sg1389
I1
sg1390
I1
sg1391
I1
sg1392
I1
sg2380
I1
sg1394
I1
sg1395
I1
sg1396
I1
sg1397
I1
sg324
I1
sg1399
I1
sg1400
I1
sg1401
I1
sg358
I1
sg1403
I1
sg1404
I1
sg1406
I1
sg1407
I1
sg1408
I1
sg1409
I1
sg1410
I1
sg1411
I1
sg2354
I1
sg2383
I1
sg1413
I1
sg1414
I1
sg1415
I1
sg1416
I1
sg1418
I1
sg1419
I1
sg1420
I1
sg1421
I1
sg1422
I1
sg1424
I1
sg1425
I1
sg1426
I1
sg1427
I1
sg1428
I1
sg1582
I1
sg1430
I1
sg1431
I1
sg1432
I1
sg1433
I1
sg1434
I1
sg1435
I1
sg1436
I1
sg1437
I1
sg1438
I1
sg1439
I1
sg2447
I1
sg1441
I1
sg1442
I1
sg1443
I1
sg1444
I1
sg1445
I1
sg1446
I1
sg1447
I1
sg1448
I1
sg680
I1
sg1450
I1
sg2492
I1
sg1451
I1
sg1452
I1
sg1453
I1
sg1454
I1
sg698
I1
sg1457
I1
sg1458
I1
sg1459
I1
sg1460
I1
sg1461
I1
sg1462
I1
sg745
I1
sg1464
I1
sg1465
I1
sg1466
I1
sg1467
I1
sg1468
I1
sg1469
I1
sg1470
I1
sg1471
I1
sg1472
I1
sg1473
I1
sg1474
I1
sg1475
I1
sg426
I1
sg1477
I1
sg1478
I1
sg1479
I1
sg1480
I1
sg1481
I1
sg1482
I1
sg1483
I1
sg1484
I1
sg1485
I1
sg1486
I1
sg1487
I1
sg1488
I1
sg449
I1
sg1489
I1
sg1490
I1
sg1491
I1
sg1492
I1
sg1266
I1
sg1494
I1
sg1495
I1
sg1496
I1
sg1497
I1
sg1498
I1
sg1167
I1
sg1500
I1
sg1501
I1
sg1502
I1
sg1503
I1
sg1504
I1
sg1037
I1
sg1506
I1
sg1507
I1
sg1508
I1
sg1509
I1
sg989
I1
sg1510
I1
sg1511
I1
sg1512
I1
sg1513
I1
sg1514
I1
sg1515
I1
sg1516
I1
sg1517
I1
sg1518
I1
sg1098
I1
sg1520
I1
sg1103
I1
sg1522
I1
sg1523
I1
sg1524
I1
sg1525
I1
sg1526
I1
sg1527
I1
sg2399
I1
sg2400
I1
sg1530
I1
sg1531
I1
sg1532
I1
sg1533
I1
sg1534
I1
sg1535
I1
sg1536
I1
sg1537
I1
sg1538
I1
sg1539
I1
sg1540
I1
sg1214
I1
sg1542
I1
sg1544
I1
sg1545
I1
sg1546
I1
sg1547
I1
sg1548
I1
sg1549
I1
sg1550
I1
sg1551
I1
sg1552
I1
sg1274
I1
sg1554
I1
sg1282
I1
sg1556
I1
sg1557
I1
sg1440
I1
sg1559
I1
sg1560
I1
sg1561
I1
sg1562
I1
sg1326
I1
sg1564
I1
sg1565
I1
sg1566
I1
sg1567
I1
sg1570
I1
sg1571
I1
sg1572
I1
sg1573
I1
sg1574
I1
sg1575
I1
sg1576
I1
sg1577
I1
sg1578
I1
sg1579
I1
sg1580
I1
sg1581
I1
sg1429
I1
sg1583
I1
sg1584
I1
sg1585
I1
sg1586
I1
sg1587
I1
sg1588
I1
sg1589
I1
sg1590
I1
sg1591
I1
sg1592
I1
sg1593
I1
sg1521
I1
sg1595
I1
sg1596
I1
sg1597
I1
sg1598
I1
sg1599
I1
sg1600
I1
sg1601
I1
sg1607
I1
sg1603
I1
sg1316
I1
sg1605
I1
sg1608
I1
sg195
I1
sg1602
I1
sg519
I1
sg1080
I1
sg1610
I1
sg1611
I1
sg1612
I1
sg1613
I1
sg1056
I1
sg1614
I1
sg1615
I1
sg1616
I1
sg1617
I1
sg1618
I1
sg1619
I1
sg1620
I1
sg1621
I1
sg1623
I1
sg1624
I1
sg1625
I1
sg1626
I1
sg1628
I1
sg1629
I1
sg1718
I1
sg1631
I1
sg1632
I1
sg2493
I1
sg1633
I1
sg1634
I1
sg1635
I1
sg2015
I1
sg1637
I1
sg1638
I1
sg1639
I1
sg1640
I1
sg1641
I1
sg1642
I1
sg1643
I1
sg1644
I1
sg1645
I1
sg1646
I1
sg709
I1
sg1648
I1
sg1649
I1
sg1650
I1
sg1651
I1
sg544
I1
sg1654
I1
sg1655
I1
sg1656
I1
sg1658
I1
sg1659
I1
sg1660
I1
sg1661
I1
sg1662
I1
sg1663
I1
sg339
I1
sg1664
I1
sg1665
I1
sg1666
I1
sg1667
I1
sg1668
I1
sg1669
I1
sg1670
I1
sg1417
I1
sg1673
I1
sg1674
I1
sg1675
I1
sg1676
I1
sg1493
I1
sg2430
I1
sg1678
I1
sg1679
I1
sg1680
I1
sg1681
I1
sg1682
I1
sg1683
I1
sg1684
I1
sg1685
I1
sg1686
I1
sg1687
I1
sg1688
I1
sg1689
I1
sg1690
I1
sg1691
I1
sg1692
I1
sg1693
I1
sg1694
I1
sg1695
I1
sg1696
I1
sg1697
I1
sg1698
I1
sg1699
I1
sg1700
I1
sg1701
I1
sg1702
I1
sg1703
I1
sg1704
I1
sg1705
I1
sg1706
I1
sg1707
I1
sg1708
I1
sg1709
I1
sg1710
I1
sg1711
I1
sg1712
I1
sg1713
I1
sg1714
I1
sg1715
I1
sg1716
I1
sg1717
I1
sg1630
I1
sg1719
I1
sg2282
I1
sg1722
I1
sg1723
I1
sg1724
I1
sg1725
I1
sg1726
I1
sg2031
I1
sg1728
I1
sg1729
I1
sg1730
I1
sg1731
I1
sg1732
I1
sg1733
I1
sg1734
I1
sg1735
I1
sg1147
I1
sg1737
I1
sg2437
I1
sg1739
I1
sg1740
I1
sg1741
I1
sg1742
I1
sg1743
I1
sg1744
I1
sg2433
I1
sg1746
I1
sg1747
I1
sg1748
I1
sg1749
I1
sg1750
I1
sg1751
I1
sg1752
I1
sg558
I1
sg292
I1
sg1755
I1
sg1756
I1
sg1757
I1
sg1758
I1
sg1231
I1
sg1759
I1
sg1208
I1
sg1543
I1
sg1762
I1
sg1763
I1
sg1764
I1
sg1765
I1
sg1766
I1
sg1767
I1
sg1768
I1
sg1769
I1
sg755
I1
sg1771
I1
sg2443
I1
sg2043
I1
sg1774
I1
sg1815
I1
sg2576
I1
sg1776
I1
sg1777
I1
sg1778
I1
sg1779
I1
sg1780
I1
sg1781
I1
sg1782
I1
sg1783
I1
sg1784
I1
sg1606
I1
sg1785
I1
sg53
I1
sg1787
I1
sg1788
I1
sg1789
I1
sg1790
I1
sg1791
I1
sg1792
I1
sg1793
I1
sg1794
I1
sg97
I1
sg117
I1
sg1797
I1
sg1798
I1
sg1753
I1
sg1800
I1
sg1801
I1
sg1802
I1
sg1803
I1
sg1804
I1
sg1805
I1
sg1215
I1
sg1807
I1
sg1808
I1
sg1809
I1
sg1810
I1
sg1811
I1
sg1812
I1
sg1813
I1
sg1814
I1
sg1142
I1
sg1816
I1
sg860
I1
sg1818
I1
sg1819
I1
sg1820
I1
sg1821
I1
sg1822
I1
sg2005
I1
sg1823
I1
sg1824
I1
sg1825
I1
sg1826
I1
sg1827
I1
sg1218
I1
sg1829
I1
sg2335
I1
sg1830
I1
sg1831
I1
sg1832
I1
sg1833
I1
sg1834
I1
sg1835
I1
sg1836
I1
sg1837
I1
sg419
I1
sg1840
I1
sg434
I1
sg1842
I1
sg1843
I1
sg1844
I1
sg1845
I1
sg1846
I1
sg479
I1
sg1848
I1
sg1849
I1
sg1850
I1
sg1851
I1
sg1852
I1
sg1853
I1
sg1854
I1
sg1855
I1
sg1856
I1
sg1857
I1
sg1858
I1
sg1859
I1
sg1860
I1
sg1861
I1
sg1862
I1
sg1863
I1
sg1864
I1
sg2063
I1
sg1866
I1
sg1867
I1
sg1868
I1
sg1869
I1
sg1652
I1
sg1871
I1
sg1872
I1
sg1873
I1
sg641
I1
sg1876
I1
sg1877
I1
sg1878
I1
sg655
I1
sg1880
I1
sg1881
I1
sg1882
I1
sg1883
I1
sg1884
I1
sg1360
I1
sg1886
I1
sg730
I1
sg1888
I1
sg703
I1
sg1890
I1
sg1891
I1
sg1892
I1
sg1893
I1
sg1894
I1
sg1896
I1
sg797
I1
sg1898
I1
sg1899
I1
sg1900
I1
sg848
I1
sg1902
I1
sg1903
I1
sg1904
I1
sg865
I1
sg316
I1
sg1907
I1
sg1841
I1
sg1909
I1
sg1910
I1
sg2468
I1
sg1911
I1
sg1912
I1
sg1913
I1
sg1915
I1
sg1916
I1
sg1917
I1
sg1918
I1
sg1919
I1
sg1920
I1
sg1921
I1
sg1922
I1
sg1923
I1
sg1925
I1
sg1926
I1
sg1927
I1
sg1928
I1
sg1929
I1
sg1930
I1
sg1931
I1
sg1932
I1
sg1933
I1
sg2470
I1
sg1935
I1
sg1936
I1
sg1937
I1
sg1939
I1
sg1940
I1
sg1127
I1
sg1738
I1
sg1943
I1
sg951
I1
sg1945
I1
sg1946
I1
sg1947
I1
sg1948
I1
sg1949
I1
sg1950
I1
sg1951
I1
sg956
I1
sg1953
I1
sg1954
I1
sg1955
I1
sg1956
I1
sg1957
I1
sg1958
I1
sg1959
I1
sg1960
I1
sg1961
I1
sg1962
I1
sg1963
I1
sg1964
I1
sg1965
I1
sg1290
I1
sg1967
I1
sg387
I1
sg1968
I1
sg1969
I1
sg1970
I1
sg1971
I1
sg1972
I1
sg1973
I1
sg1974
I1
sg1342
I1
sg1976
I1
sg1977
I1
sg1978
I1
sg1979
I1
sg1980
I1
sg1981
I1
sg1982
I1
sg1186
I1
sg1983
I1
sg1984
I1
sg1985
I1
sg1229
I1
sg1986
I1
sg1987
I1
sg1671
I1
sg1989
I1
sg1990
I1
sg1991
I1
sg1992
I1
sg1993
I1
sg1994
I1
sg1995
I1
sg1996
I1
sg1997
I1
sg1998
I1
sg1999
I1
sg2000
I1
sg2001
I1
sg2002
I1
sg2003
I1
sg2004
I1
sg1563
I1
sg1568
I1
sg2007
I1
sg2008
I1
sg2009
I1
sg2010
I1
sg2011
I1
sg2012
I1
sg2013
I1
sg2014
I1
sg1636
I1
sg2016
I1
sg2017
I1
sg2018
I1
sg2020
I1
sg2021
I1
sg2022
I1
sg2023
I1
sg2024
I1
sg2025
I1
sg2026
I1
sg2027
I1
sg2028
I1
sg2029
I1
sg2030
I1
sg223
I1
sg1727
I1
sg2032
I1
sg2033
I1
sg2034
I1
sg2035
I1
sg2036
I1
sg2037
I1
sg2038
I1
sg2039
I1
sg2040
I1
sg2041
I1
sg2042
I1
sg1773
I1
sg2044
I1
sg2045
I1
sg2046
I1
sg2047
I1
sg2049
I1
sg2050
I1
sg2051
I1
sg2052
I1
sg2053
I1
sg2054
I1
sg2055
I1
sg2056
I1
sg2057
I1
sg2058
I1
sg2059
I1
sg2060
I1
sg2061
I1
sg2062
I1
sg1865
I1
sg2064
I1
sg2065
I1
sg2066
I1
sg2067
I1
sg2068
I1
sg2069
I1
sg2070
I1
sg2123
I1
sg2071
I1
sg2072
I1
sg2073
I1
sg2074
I1
sg2075
I1
sg2076
I1
sg2077
I1
sg2078
I1
sg2079
I1
sg1938
I1
sg2081
I1
sg2082
I1
sg2083
I1
sg2084
I1
sg2085
I1
sg2086
I1
sg2087
I1
sg2088
I1
sg2089
I1
sg2090
I1
sg2091
I1
sg2092
I1
sg2093
I1
sg2094
I1
sg2095
I1
sg2096
I1
sg2097
I1
sg817
I1
sg2006
I1
sg2101
I1
sg2102
I1
sg2103
I1
sg2104
I1
sg2105
I1
sg2106
I1
sg2107
I1
sg2108
I1
sg2109
I1
sg2120
I1
sg2111
I1
sg2112
I1
sg2113
I1
sg2114
I1
sg2115
I1
sg2116
I1
sg2117
I1
sg2118
I1
sg2119
I1
sg2110
I1
sg2121
I1
sg1609
I1
sg2122
I1
sg659
I1
sg2124
I1
sg2125
I1
sg2126
I1
sg2127
I1
sg2128
I1
sg2129
I1
sg2130
I1
sg2131
I1
sg2132
I1
sg2133
I1
sg2134
I1
sg2135
I1
sg2136
I1
sg2137
I1
sg2138
I1
sg2139
I1
sg2140
I1
sg2141
I1
sg2142
I1
sg2143
I1
sg2144
I1
sg2145
I1
sg2146
I1
sg2147
I1
sg2149
I1
sg2150
I1
sg1245
I1
sg2152
I1
sg2153
I1
sg2154
I1
sg2155
I1
sg2156
I1
sg2157
I1
sg2158
I1
sg2159
I1
sg2160
I1
sg2161
I1
sg2162
I1
sg2163
I1
sg2327
I1
sg2165
I1
sg2166
I1
sg2371
I1
sg2168
I1
sg2169
I1
sg2170
I1
sg2171
I1
sg2172
I1
sg2173
I1
sg2174
I1
sg2175
I1
sg2176
I1
sg2177
I1
sg2497
I1
sg1817
I1
sg373
I1
sg2178
I1
sg2179
I1
sg2180
I1
sg2181
I1
sg2182
I1
sg2183
I1
sg1455
I1
sg2185
I1
sg2187
I1
sg2188
I1
sg2189
I1
sg398
I1
sg2190
I1
sg2191
I1
sg1672
I1
sg2193
I1
sg2194
I1
sg2195
I1
sg2196
I1
sg2197
I1
sg1720
I1
sg1627
I1
sg2200
I1
sg2201
I1
sg2202
I1
sg2203
I1
sg2204
I1
sg2205
I1
sg2206
I1
sg2207
I1
sg2208
I1
sg2209
I1
sg2210
I1
sg1181
I1
sg1476
I1
sg2211
I1
sg2212
I1
sg2213
I1
sg2513
I1
sg2214
I1
sg130
I1
sg2216
I1
sg2217
I1
sg2218
I1
sg2219
I1
sg2220
I1
sg2221
I1
sg2222
I1
sg2223
I1
sg2224
I1
sg2225
I1
sg198
I1
sg2227
I1
sg962
I1
sg2229
I1
sg2230
I1
sg2231
I1
sg1129
I1
sg2232
I1
sg1328
I1
sg2233
I1
sg618
I1
sg2234
I1
sg2235
I1
sg312
I1
sg849
I1
sg2238
I1
sg2239
I1
sg976
I1
sg2241
I1
sg2242
I1
sg2243
I1
sg2244
I1
sg2245
I1
sg2247
I1
sg2248
I1
sg2250
I1
sg2251
I1
sg2252
I1
sg2253
I1
sg2151
I1
sg2255
I1
sg2256
I1
sg457
I1
sg463
I1
sg2259
I1
sg473
I1
sg2261
I1
sg2262
I1
sg2263
I1
sg2264
I1
sg2265
I1
sg2266
I1
sg2267
I1
sg2268
I1
sg2269
I1
sg2270
I1
sg2519
I1
sg2272
I1
sg2273
I1
sg2274
I1
sg2275
I1
sg2276
I1
sg2277
I1
sg2278
I1
sg2520
I1
sg2279
I1
sg2280
I1
sg2281
I1
sg1721
I1
sg2283
I1
sg671
I1
sg2285
I1
sg2286
I1
sg2287
I1
sg2288
I1
sg2289
I1
sg2290
I1
sg2291
I1
sg2292
I1
sg743
I1
sg2019
I1
sg2295
I1
sg2296
I1
sg2297
I1
sg767
I1
sg2299
I1
sg2300
I1
sg2301
I1
sg2302
I1
sg2303
I1
sg2304
I1
sg2305
I1
sg2306
I1
sg2307
I1
sg2308
I1
sg827
I1
sg2310
I1
sg2311
I1
sg2312
I1
sg2313
I1
sg1569
I1
sg2315
I1
sg2316
I1
sg2317
I1
sg2318
I1
sg2319
I1
sg2320
I1
sg936
I1
sg2322
I1
sg2323
I1
sg2324
I1
sg644
I1
sg2325
I1
sg1889
I1
sg2326
I1
sg2164
I1
sg2328
I1
sg2329
I1
sg2330
I1
sg2331
I1
sg1042
I1
sg2333
I1
sg938
I1
sg2246
I1
sg2336
I1
sg2337
I1
sg2338
I1
sg2339
I1
sg2340
I1
sg2341
I1
sg2342
I1
sg2343
I1
sg2344
I1
sg2345
I1
sg2346
I1
sg1157
I1
sg2348
I1
sg2349
I1
sg1179
I1
sg2351
I1
sg1304
I1
sg2352
I1
sg2353
I1
sg1236
I1
sg2355
I1
sg2356
I1
sg2357
I1
sg2358
I1
sg1283
I1
sg2360
I1
sg127
I1
sg2362
I1
sg1294
I1
sg1297
I1
sg2365
I1
sg2367
I1
sg2374
I1
sg1309
I1
sg2369
I1
sg2370
I1
sg2167
I1
sg2372
I1
sg1736
I1
sg1356
I1
sg2375
I1
sg2376
I1
sg2377
I1
sg2378
I1
sg2379
I1
sg1393
I1
sg2381
I1
sg2382
I1
sg1412
I1
sg2384
I1
sg2385
I1
sg2386
I1
sg2387
I1
sg2388
I1
sg2389
I1
sg405
I1
sg2391
I1
sg2392
I1
sg2393
I1
sg2394
I1
sg2395
I1
sg2396
I1
sg2397
I1
sg2398
I1
sg1528
I1
sg1529
I1
sg2401
I1
sg2402
I1
sg2403
I1
sg2404
I1
sg2405
I1
sg2406
I1
sg2407
I1
sg2408
I1
sg2409
I1
sg2410
I1
sg2411
I1
sg2412
I1
sg2413
I1
sg2414
I1
sg2415
I1
sg934
I1
sg2416
I1
sg35
I1
sg2417
I1
sg2418
I1
sg2419
I1
sg2420
I1
sg2421
I1
sg2422
I1
sg2423
I1
sg2424
I1
sg2425
I1
sg2426
I1
sg2427
I1
sg2428
I1
sg2429
I1
sg1677
I1
sg2431
I1
sg2432
I1
sg1745
I1
sg2434
I1
sg2435
I1
sg2436
I1
sg1321
I1
sg2438
I1
sg2439
I1
sg2440
I1
sg2441
I1
sg2442
I1
sg1772
I1
sg2444
I1
sg2445
I1
sg2448
I1
sg2449
I1
sg2450
I1
sg2451
I1
sg2452
I1
sg2453
I1
sg2454
I1
sg2455
I1
sg2456
I1
sg2457
I1
sg2458
I1
sg2459
I1
sg2460
I1
sg2461
I1
sg1754
I1
sg2464
I1
sg2465
I1
sg2466
I1
sg2467
I1
sg909
I1
sg2469
I1
sg1934
I1
sg2471
I1
sg2472
I1
sg2473
I1
sg2314
I1
sg2474
I1
sg2475
I1
sg2476
I1
sg2477
I1
sg2478
I1
sg2479
I1
sg2480
I1
sg2481
I1
sg2482
I1
sg2483
I1
sg2484
I1
sg2485
I1
sg2486
I1
sg2487
I1
sg2488
I1
sg244
I1
sg2489
I1
sg2490
I1
sg2446
I1
sg345
I1
sg2494
I1
sg2495
I1
sg2496
I1
sg2184
I1
sg2498
I1
sg2499
I1
sg2500
I1
sg2501
I1
sg2502
I1
sg2503
I1
sg2504
I1
sg2505
I1
sg2506
I1
sg2507
I1
sg2186
I1
sg2509
I1
sg2510
I1
sg2511
I1
sg2512
I1
sg1761
I1
sg2515
I1
sg2516
I1
sg863
I1
sg2518
I1
sg2271
I1
sg1594
I1
sg2521
I1
sg2522
I1
sg2523
I1
sg2524
I1
sg2525
I1
sg1647
I1
sg2526
I1
sg2527
I1
sg2528
I1
sg2529
I1
sg2530
I1
sg2531
I1
sg2532
I1
sg2533
I1
sg2534
I1
sg2535
I1
sg2536
I1
sg2537
I1
sg2538
I1
sg2539
I1
sg2540
I1
sg2192
I1
sg2541
I1
sg2514
I1
sg2544
I1
sg2545
I1
sg2546
I1
sg2547
I1
sg2548
I1
sg2549
I1
sg1838
I1
sg2551
I1
sg2491
I1
sg2553
I1
sg2554
I1
sg622
I1
sg2556
I1
sg2557
I1
sg2558
I1
sg1197
I1
sg2560
I1
sg2561
I1
sg2562
I1
sg2563
I1
sg2564
I1
sg2565
I1
sg739
I1
sg2566
I1
sg2567
I1
sg2568
I1
sg2569
I1
sg2578
I1
sg2199
I1
sg2570
I1
sg2571
I1
sg2572
I1
sg2573
I1
sg2574
I1
sg2575
I1
sg2543
I1
sg2577
I1
sg1944
I1
ssS'index_docs'
p5162
(dp5163
I1
I1
sI2
I1
sI3
I1
sI4
I1
sI5
I1
sI6
I1
sI7
I1
sI8
I1
sI9
I1
sI10
I1
sI11
I1
sI12
I1
sI13
I1
sI14
I1
sI15
I1
sI16
I1
sI17
I1
sI18
I1
sI19
I1
sI20
I1
sI21
I1
sI22
I1
sI23
I1
sI24
I1
sI25
I1
sI26
I1
sI27
I1
sI28
I1
sI29
I1
sI30
I1
sI31
I1
sI32
I1
sI33
I1
sI34
I1
sI35
I1
sI36
I1
sI37
I1
sI38
I1
sI39
I1
sI40
I1
sI41
I1
sI42
I1
sI43
I1
sI44
I1
sI45
I1
sI46
I1
sI47
I1
sI48
I1
sI49
I1
sI50
I1
sI51
I1
sI52
I1
sI53
I1
sI54
I1
sI55
I1
sI56
I1
sI57
I1
sI58
I1
sI59
I1
sI60
I1
sI61
I1
sI62
I1
sI63
I1
sI64
I1
sI65
I1
sI66
I1
sI67
I1
sI68
I1
sI69
I1
sI70
I1
sI71
I1
sI72
I1
sI73
I1
sI74
I1
sI75
I1
sI76
I1
sI77
I1
sI78
I1
sI79
I1
sI80
I1
sI81
I1
sI82
I1
sI83
I1
sI84
I1
sI85
I1
sI86
I1
sI87
I1
sI88
I1
sI89
I1
sI90
I1
sI91
I1
sI92
I1
sI93
I1
sI94
I1
sI95
I1
sI96
I1
sI97
I1
sI98
I1
sI99
I1
sI100
I1
sI101
I1
sI102
I1
sI103
I1
sI104
I1
sI105
I1
sI106
I1
sI107
I1
sI108
I1
sI109
I1
sI110
I1
sI111
I1
sI112
I1
sI113
I1
sI114
I1
sI115
I1
sI116
I1
sI117
I1
sI118
I1
sI119
I1
sI120
I1
sI121
I1
sI122
I1
sI123
I1
sI124
I1
sI125
I1
sI126
I1
sI127
I1
sI128
I1
sI129
I1
sI130
I1
sI131
I1
sI132
I1
sI133
I1
sI134
I1
sI135
I1
sI136
I1
sI137
I1
sI138
I1
sI139
I1
sI140
I1
sI141
I1
sI142
I1
sI143
I1
sI144
I1
sI145
I1
sI146
I1
sI147
I1
sI148
I1
sI149
I1
sI150
I1
sI151
I1
sI152
I1
sI153
I1
sI154
I1
sI155
I1
sI156
I1
sI157
I1
sI158
I1
sI159
I1
sI160
I1
sI161
I1
sI162
I1
sI163
I1
sI164
I1
sI165
I1
sI166
I1
sI167
I1
sI168
I1
sI169
I1
sI170
I1
sI171
I1
sI172
I1
sI173
I1
sI174
I1
sI175
I1
sI176
I1
sI177
I1
sI178
I1
sI179
I1
sI180
I1
sI181
I1
sI182
I1
sI183
I1
sI184
I1
sI185
I1
sI186
I1
sI187
I1
sI188
I1
sI189
I1
sI190
I1
sI191
I1
sI192
I1
sI193
I1
sI194
I1
sI195
I1
sI196
I1
sI197
I1
sI198
I1
sI199
I1
sI200
I1
sI201
I1
sI202
I1
sI203
I1
sI204
I1
sI205
I1
sI206
I1
sI207
I1
sI208
I1
sI209
I1
sI210
I1
sI211
I1
sI212
I1
sI213
I1
sI214
I1
sI215
I1
sI216
I1
sI217
I1
sI218
I1
sI219
I1
sI220
I1
sI221
I1
sI222
I1
sI223
I1
sI224
I1
sI225
I1
sI226
I1
sI227
I1
sI228
I1
sI229
I1
sI230
I1
sI231
I1
sI232
I1
sI233
I1
sI234
I1
sI235
I1
sI236
I1
sI237
I1
sI238
I1
sI239
I1
sI240
I1
sI241
I1
sI242
I1
sI243
I1
sI244
I1
sI245
I1
sI246
I1
sI247
I1
sI248
I1
sI249
I1
sI250
I1
sI251
I1
sI252
I1
sI253
I1
sI254
I1
sI255
I1
sI256
I1
sI257
I1
sI258
I1
sI259
I1
sI260
I1
sI261
I1
sI262
I1
sI263
I1
sI264
I1
sI265
I1
sI266
I1
sI267
I1
sI268
I1
sI269
I1
sI270
I1
sI271
I1
sI272
I1
sI273
I1
sI274
I1
sI275
I1
sI276
I1
sI277
I1
sI278
I1
sI279
I1
sI280
I1
sI281
I1
sI282
I1
sI283
I1
sI284
I1
sI285
I1
sI286
I1
sI287
I1
sI288
I1
sI289
I1
sI290
I1
sI291
I1
sI292
I1
sI293
I1
sI294
I1
sI295
I1
sI296
I1
sI297
I1
sI298
I1
sI299
I1
sI300
I1
sI301
I1
sI302
I1
sI303
I1
sI304
I1
sI305
I1
sI306
I1
sI307
I1
sI308
I1
sI309
I1
sI310
I1
sI311
I1
sI312
I1
sI313
I1
sI314
I1
sI315
I1
sI316
I1
sI317
I1
sI318
I1
sI319
I1
sI320
I1
sI321
I1
sI322
I1
sI323
I1
sI324
I1
sI325
I1
sI326
I1
sI327
I1
sI328
I1
sI329
I1
sI330
I1
sI331
I1
sI332
I1
sI333
I1
sI334
I1
sI335
I1
sI336
I1
sI337
I1
sI338
I1
sI339
I1
sI340
I1
sI341
I1
sI342
I1
sI343
I1
sI344
I1
sI345
I1
sI346
I1
sI347
I1
sI348
I1
sI349
I1
sI350
I1
sI351
I1
sI352
I1
sI353
I1
sI354
I1
sI355
I1
sI356
I1
sI357
I1
sI358
I1
sI359
I1
sI360
I1
sI361
I1
sI362
I1
sI363
I1
sI364
I1
sI365
I1
sI366
I1
sI367
I1
sI368
I1
sI369
I1
sI370
I1
sI371
I1
sI372
I1
sI373
I1
sI374
I1
sI375
I1
sI376
I1
sI377
I1
sI378
I1
sI379
I1
sI380
I1
sI381
I1
sI382
I1
sI383
I1
sI384
I1
sI385
I1
sI386
I1
sI387
I1
sI388
I1
sI389
I1
sI390
I1
sI391
I1
sI392
I1
sI393
I1
sI394
I1
sI395
I1
sI396
I1
sI397
I1
sI398
I1
sI399
I1
sI400
I1
sI401
I1
sI402
I1
sI403
I1
sI404
I1
sI405
I1
sI406
I1
sI407
I1
sI408
I1
sI409
I1
sI410
I1
sI411
I1
sI412
I1
sI413
I1
sI414
I1
sI415
I1
sI416
I1
sI417
I1
sI418
I1
sI419
I1
sI420
I1
sI421
I1
sI422
I1
sI423
I1
sI424
I1
sI425
I1
sI426
I1
sI427
I1
sI428
I1
sI429
I1
sI430
I1
sI431
I1
sI432
I1
sI433
I1
sI434
I1
sI435
I1
sI436
I1
sI437
I1
sI438
I1
sI439
I1
sI440
I1
sI441
I1
sI442
I1
sI443
I1
sI444
I1
sI445
I1
sI446
I1
sI447
I1
sI448
I1
sI449
I1
sI450
I1
sI451
I1
sI452
I1
sI453
I1
sI454
I1
sI455
I1
sI456
I1
sI457
I1
sI458
I1
sI459
I1
sI460
I1
sI461
I1
sI462
I1
sI463
I1
sI464
I1
sI465
I1
sI466
I1
sI467
I1
sI468
I1
sI469
I1
sI470
I1
sI471
I1
sI472
I1
sI473
I1
sI474
I1
sI475
I1
sI476
I1
sI477
I1
sI478
I1
sI479
I1
sI480
I1
sI481
I1
sI482
I1
sI483
I1
sI484
I1
sI485
I1
sI486
I1
sI487
I1
sI488
I1
sI489
I1
sI490
I1
sI491
I1
sI492
I1
sI493
I1
sI494
I1
sI495
I1
sI496
I1
sI497
I1
sI498
I1
sI499
I1
sI500
I1
sI501
I1
sI502
I1
sI503
I1
sI504
I1
sI505
I1
sI506
I1
sI507
I1
sI508
I1
sI509
I1
sI510
I1
sI511
I1
sI512
I1
sI513
I1
sI514
I1
sI515
I1
sI516
I1
sI517
I1
sI518
I1
sI519
I1
sI520
I1
sI521
I1
sI522
I1
sI523
I1
sI524
I1
sI525
I1
sI526
I1
sI527
I1
sI528
I1
sI529
I1
sI530
I1
sI531
I1
sI532
I1
sI533
I1
sI534
I1
sI535
I1
sI536
I1
sI537
I1
sI538
I1
sI539
I1
sI540
I1
sI541
I1
sI542
I1
sI543
I1
sI544
I1
sI545
I1
sI546
I1
sI547
I1
sI548
I1
sI549
I1
sI550
I1
sI551
I1
sI552
I1
sI553
I1
sI554
I1
sI555
I1
sI556
I1
sI557
I1
sI558
I1
sI559
I1
sI560
I1
sI561
I1
sI562
I1
sI563
I1
sI564
I1
sI565
I1
sI566
I1
sI567
I1
sI568
I1
sI569
I1
sI570
I1
sI571
I1
sI572
I1
sI573
I1
sI574
I1
sI575
I1
sI576
I1
sI577
I1
sI578
I1
sI579
I1
sI580
I1
sI581
I1
sI582
I1
sI583
I1
sI584
I1
sI585
I1
sI586
I1
sI587
I1
sI588
I1
sI589
I1
sI590
I1
sI591
I1
sI592
I1
sI593
I1
sI594
I1
sI595
I1
sI596
I1
sI597
I1
sI598
I1
sI599
I1
sI600
I1
sI601
I1
sI602
I1
sI603
I1
sI604
I1
sI605
I1
sI606
I1
sI607
I1
sI608
I1
sI609
I1
sI610
I1
sI611
I1
sI612
I1
sI613
I1
sI614
I1
sI615
I1
sI616
I1
sI617
I1
sI618
I1
sI619
I1
sI620
I1
sI621
I1
sI622
I1
sI623
I1
sI624
I1
sI625
I1
sI626
I1
sI627
I1
sI628
I1
sI629
I1
sI630
I1
sI631
I1
sI632
I1
sI633
I1
sI634
I1
sI635
I1
sI636
I1
sI637
I1
sI638
I1
sI639
I1
sI640
I1
sI641
I1
sI642
I1
sI643
I1
sI644
I1
sI645
I1
sI646
I1
sI647
I1
sI648
I1
sI649
I1
sI650
I1
sI651
I1
sI652
I1
sI653
I1
sI654
I1
sI655
I1
sI656
I1
sI657
I1
sI658
I1
sI659
I1
sI660
I1
sI661
I1
sI662
I1
sI663
I1
sI664
I1
sI665
I1
sI666
I1
sI667
I1
sI668
I1
sI669
I1
sI670
I1
sI671
I1
sI672
I1
sI673
I1
sI674
I1
sI675
I1
sI676
I1
sI677
I1
sI678
I1
sI679
I1
sI680
I1
sI681
I1
sI682
I1
sI683
I1
sI684
I1
sI685
I1
sI686
I1
sI687
I1
sI688
I1
sI689
I1
sI690
I1
sI691
I1
sI692
I1
sI693
I1
sI694
I1
sI695
I1
sI696
I1
sI697
I1
sI698
I1
sI699
I1
sI700
I1
sI701
I1
sI702
I1
sI703
I1
sI704
I1
sI705
I1
sI706
I1
sI707
I1
sI708
I1
sI709
I1
sI710
I1
sI711
I1
sI712
I1
sI713
I1
sI714
I1
sI715
I1
sI716
I1
sI717
I1
sI718
I1
sI719
I1
sI720
I1
sI721
I1
sI722
I1
sI723
I1
sI724
I1
sI725
I1
sI726
I1
sI727
I1
sI728
I1
sI729
I1
sI730
I1
sI731
I1
sI732
I1
sI733
I1
sI734
I1
sI735
I1
sI736
I1
sI737
I1
sI738
I1
sI739
I1
sI740
I1
sI741
I1
sI742
I1
sI743
I1
sI744
I1
sI745
I1
sI746
I1
sI747
I1
sI748
I1
sI749
I1
sI750
I1
sI751
I1
sI752
I1
sI753
I1
sI754
I1
sI755
I1
sI756
I1
sI757
I1
sI758
I1
sI759
I1
sI760
I1
sI761
I1
sI762
I1
sI763
I1
sI764
I1
sI765
I1
sI766
I1
sI767
I1
sI768
I1
sI769
I1
sI770
I1
sI771
I1
sI772
I1
sI773
I1
sI774
I1
sI775
I1
sI776
I1
sI777
I1
sI778
I1
sI779
I1
sI780
I1
sI781
I1
sI782
I1
sI783
I1
sI784
I1
sI785
I1
sI786
I1
sI787
I1
sI788
I1
sI789
I1
sI790
I1
sI791
I1
sI792
I1
sI793
I1
sI794
I1
sI795
I1
sI796
I1
sI797
I1
sI798
I1
sI799
I1
sI800
I1
sI801
I1
sI802
I1
sI803
I1
sI804
I1
sI805
I1
sI806
I1
sI807
I1
sI808
I1
sI809
I1
sI810
I1
sI811
I1
sI812
I1
sI813
I1
sI814
I1
sI815
I1
sI816
I1
sI817
I1
sI818
I1
sI819
I1
sI820
I1
sI821
I1
sI822
I1
sI823
I1
sI824
I1
sI825
I1
sI826
I1
sI827
I1
sI828
I1
sI829
I1
sI830
I1
sI831
I1
sI832
I1
sI833
I1
sI834
I1
sI835
I1
sI836
I1
sI837
I1
sI838
I1
sI839
I1
sI840
I1
sI841
I1
sI842
I1
sI843
I1
sI844
I1
sI845
I1
sI846
I1
sI847
I1
sI848
I1
sI849
I1
sI850
I1
sI851
I1
sI852
I1
sI853
I1
sI854
I1
sI855
I1
sI856
I1
sI857
I1
sI858
I1
sI859
I1
sI860
I1
sI861
I1
sI862
I1
sI863
I1
sI864
I1
sI865
I1
sI866
I1
sI867
I1
sI868
I1
sI869
I1
sI870
I1
sI871
I1
sI872
I1
sI873
I1
sI874
I1
sI875
I1
sI876
I1
sI877
I1
sI878
I1
sI879
I1
sI880
I1
sI881
I1
sI882
I1
sI883
I1
sI884
I1
sI885
I1
sI886
I1
sI887
I1
sI888
I1
sI889
I1
sI890
I1
sI891
I1
sI892
I1
sI893
I1
sI894
I1
sI895
I1
sI896
I1
sI897
I1
sI898
I1
sI899
I1
sI900
I1
sI901
I1
sI902
I1
sI903
I1
sI904
I1
sI905
I1
sI906
I1
sI907
I1
sI908
I1
sI909
I1
sI910
I1
sI911
I1
sI912
I1
sI913
I1
sI914
I1
sI915
I1
sI916
I1
sI917
I1
sI918
I1
sI919
I1
sI920
I1
sI921
I1
sI922
I1
sI923
I1
sI924
I1
sI925
I1
sI926
I1
sI927
I1
sI928
I1
sI929
I1
sI930
I1
sI931
I1
sI932
I1
sI933
I1
sI934
I1
sI935
I1
sI936
I1
sI937
I1
sI938
I1
sI939
I1
sI940
I1
sI941
I1
sI942
I1
sI943
I1
sI944
I1
sI945
I1
sI946
I1
sI947
I1
sI948
I1
sI949
I1
sI950
I1
sI951
I1
sI952
I1
sI953
I1
sI954
I1
sI955
I1
sI956
I1
sI957
I1
sI958
I1
sI959
I1
sI960
I1
sI961
I1
sI962
I1
sI963
I1
sI964
I1
sI965
I1
sI966
I1
sI967
I1
sI968
I1
sI969
I1
sI970
I1
sI971
I1
sI972
I1
sI973
I1
sI974
I1
sI975
I1
sI976
I1
sI977
I1
sI978
I1
sI979
I1
sI980
I1
sI981
I1
sI982
I1
sI983
I1
sI984
I1
sI985
I1
sI986
I1
sI987
I1
sI988
I1
sI989
I1
sI990
I1
sI991
I1
sI992
I1
sI993
I1
sI994
I1
sI995
I1
sI996
I1
sI997
I1
sI998
I1
sI999
I1
sI1000
I1
sI1001
I1
sI1002
I1
sI1003
I1
sI1004
I1
sI1005
I1
sI1006
I1
sI1007
I1
sI1008
I1
sI1009
I1
sI1010
I1
sI1011
I1
sI1012
I1
sI1013
I1
sI1014
I1
sI1015
I1
sI1016
I1
sI1017
I1
sI1018
I1
sI1019
I1
sI1020
I1
sI1021
I1
sI1022
I1
sI1023
I1
sI1024
I1
sI1025
I1
sI1026
I1
sI1027
I1
sI1028
I1
sI1029
I1
sI1030
I1
sI1031
I1
sI1032
I1
sI1033
I1
sI1034
I1
sI1035
I1
sI1036
I1
sI1037
I1
sI1038
I1
sI1039
I1
sI1040
I1
sI1041
I1
sI1042
I1
sI1043
I1
sI1044
I1
sI1045
I1
sI1046
I1
sI1047
I1
sI1048
I1
sI1049
I1
sI1050
I1
sI1051
I1
sI1052
I1
sI1053
I1
sI1054
I1
sI1055
I1
sI1056
I1
sI1057
I1
sI1058
I1
sI1059
I1
sI1060
I1
sI1061
I1
sI1062
I1
sI1063
I1
sI1064
I1
sI1065
I1
sI1066
I1
sI1067
I1
sI1068
I1
sI1069
I1
sI1070
I1
sI1071
I1
sI1072
I1
sI1073
I1
sI1074
I1
sI1075
I1
sI1076
I1
sI1077
I1
sI1078
I1
sI1079
I1
sI1080
I1
sI1081
I1
sI1082
I1
sI1083
I1
sI1084
I1
sI1085
I1
sI1086
I1
sI1087
I1
sI1088
I1
sI1089
I1
sI1090
I1
sI1091
I1
sI1092
I1
sI1093
I1
sI1094
I1
sI1095
I1
sI1096
I1
sI1097
I1
sI1098
I1
sI1099
I1
sI1100
I1
sI1101
I1
sI1102
I1
sI1103
I1
sI1104
I1
sI1105
I1
sI1106
I1
sI1107
I1
sI1108
I1
sI1109
I1
sI1110
I1
sI1111
I1
sI1112
I1
sI1113
I1
sI1114
I1
sI1115
I1
sI1116
I1
sI1117
I1
sI1118
I1
sI1119
I1
sI1120
I1
sI1121
I1
sI1122
I1
sI1123
I1
sI1124
I1
sI1125
I1
sI1126
I1
sI1127
I1
sI1128
I1
sI1129
I1
sI1130
I1
sI1131
I1
sI1132
I1
sI1133
I1
sI1134
I1
sI1135
I1
sI1136
I1
sI1137
I1
sI1138
I1
sI1139
I1
sI1140
I1
sI1141
I1
sI1142
I1
sI1143
I1
sI1144
I1
sI1145
I1
sI1146
I1
sI1147
I1
sI1148
I1
sI1149
I1
sI1150
I1
sI1151
I1
sI1152
I1
sI1153
I1
sI1154
I1
sI1155
I1
sI1156
I1
sI1157
I1
sI1158
I1
sI1159
I1
sI1160
I1
sI1161
I1
sI1162
I1
sI1163
I1
sI1164
I1
sI1165
I1
sI1166
I1
sI1167
I1
sI1168
I1
sI1169
I1
sI1170
I1
sI1171
I1
sI1172
I1
sI1173
I1
sI1174
I1
sI1175
I1
sI1176
I1
sI1177
I1
sI1178
I1
sI1179
I1
sI1180
I1
sI1181
I1
sI1182
I1
sI1183
I1
sI1184
I1
sI1185
I1
sI1186
I1
sI1187
I1
sI1188
I1
sI1189
I1
sI1190
I1
sI1191
I1
sI1192
I1
sI1193
I1
sI1194
I1
sI1195
I1
sI1196
I1
sI1197
I1
sI1198
I1
sI1199
I1
sI1200
I1
sI1201
I1
sI1202
I1
sI1203
I1
sI1204
I1
sI1205
I1
sI1206
I1
sI1207
I1
sI1208
I1
sI1209
I1
sI1210
I1
sI1211
I1
sI1212
I1
sI1213
I1
sI1214
I1
sI1215
I1
sI1216
I1
sI1217
I1
sI1218
I1
sI1219
I1
sI1220
I1
sI1221
I1
sI1222
I1
sI1223
I1
sI1224
I1
sI1225
I1
sI1226
I1
sI1227
I1
sI1228
I1
sI1229
I1
sI1230
I1
sI1231
I1
sI1232
I1
sI1233
I1
sI1234
I1
sI1235
I1
sI1236
I1
sI1237
I1
sI1238
I1
sI1239
I1
sI1240
I1
sI1241
I1
sI1242
I1
sI1243
I1
sI1244
I1
sI1245
I1
sI1246
I1
sI1247
I1
sI1248
I1
sI1249
I1
sI1250
I1
sI1251
I1
sI1252
I1
sI1253
I1
sI1254
I1
sI1255
I1
sI1256
I1
sI1257
I1
sI1258
I1
sI1259
I1
sI1260
I1
sI1261
I1
sI1262
I1
sI1263
I1
sI1264
I1
sI1265
I1
sI1266
I1
sI1267
I1
sI1268
I1
sI1269
I1
sI1270
I1
sI1271
I1
sI1272
I1
sI1273
I1
sI1274
I1
sI1275
I1
sI1276
I1
sI1277
I1
sI1278
I1
sI1279
I1
sI1280
I1
sI1281
I1
sI1282
I1
sI1283
I1
sI1284
I1
sI1285
I1
sI1286
I1
sI1287
I1
sI1288
I1
sI1289
I1
sI1290
I1
sI1291
I1
sI1292
I1
sI1293
I1
sI1294
I1
sI1295
I1
sI1296
I1
sI1297
I1
sI1298
I1
sI1299
I1
sI1300
I1
sI1301
I1
sI1302
I1
sI1303
I1
sI1304
I1
sI1305
I1
sI1306
I1
sI1307
I1
sI1308
I1
sI1309
I1
sI1310
I1
sI1311
I1
sI1312
I1
sI1313
I1
sI1314
I1
sI1315
I1
sI1316
I1
sI1317
I1
sI1318
I1
sI1319
I1
sI1320
I1
sI1321
I1
sI1322
I1
sI1323
I1
sI1324
I1
sI1325
I1
sI1326
I1
sI1327
I1
sI1328
I1
sI1329
I1
sI1330
I1
sI1331
I1
sI1332
I1
sI1333
I1
sI1334
I1
sI1335
I1
sI1336
I1
sI1337
I1
sI1338
I1
sI1339
I1
sI1340
I1
sI1341
I1
sI1342
I1
sI1343
I1
sI1344
I1
sI1345
I1
sI1346
I1
sI1347
I1
sI1348
I1
sI1349
I1
sI1350
I1
sI1351
I1
sI1352
I1
sI1353
I1
sI1354
I1
sI1355
I1
sI1356
I1
sI1357
I1
sI1358
I1
sI1359
I1
sI1360
I1
sI1361
I1
sI1362
I1
sI1363
I1
sI1364
I1
sI1365
I1
sI1366
I1
sI1367
I1
sI1368
I1
sI1369
I1
sI1370
I1
sI1371
I1
sI1372
I1
sI1373
I1
sI1374
I1
sI1375
I1
sI1376
I1
sI1377
I1
sI1378
I1
sI1379
I1
sI1380
I1
sI1381
I1
sI1382
I1
sI1383
I1
sI1384
I1
sI1385
I1
sI1386
I1
sI1387
I1
sI1388
I1
sI1389
I1
sI1390
I1
sI1391
I1
sI1392
I1
sI1393
I1
sI1394
I1
sI1395
I1
sI1396
I1
sI1397
I1
sI1398
I1
sI1399
I1
sI1400
I1
sI1401
I1
sI1402
I1
sI1403
I1
sI1404
I1
sI1405
I1
sI1406
I1
sI1407
I1
sI1408
I1
sI1409
I1
sI1410
I1
sI1411
I1
sI1412
I1
sI1413
I1
sI1414
I1
sI1415
I1
sI1416
I1
sI1417
I1
sI1418
I1
sI1419
I1
sI1420
I1
sI1421
I1
sI1422
I1
sI1423
I1
sI1424
I1
sI1425
I1
sI1426
I1
sI1427
I1
sI1428
I1
sI1429
I1
sI1430
I1
sI1431
I1
sI1432
I1
sI1433
I1
sI1434
I1
sI1435
I1
sI1436
I1
sI1437
I1
sI1438
I1
sI1439
I1
sI1440
I1
sI1441
I1
sI1442
I1
sI1443
I1
sI1444
I1
sI1445
I1
sI1446
I1
sI1447
I1
sI1448
I1
sI1449
I1
sI1450
I1
sI1451
I1
sI1452
I1
sI1453
I1
sI1454
I1
sI1455
I1
sI1456
I1
sI1457
I1
sI1458
I1
sI1459
I1
sI1460
I1
sI1461
I1
sI1462
I1
sI1463
I1
sI1464
I1
sI1465
I1
sI1466
I1
sI1467
I1
sI1468
I1
sI1469
I1
sI1470
I1
sI1471
I1
sI1472
I1
sI1473
I1
sI1474
I1
sI1475
I1
sI1476
I1
sI1477
I1
sI1478
I1
sI1479
I1
sI1480
I1
sI1481
I1
sI1482
I1
sI1483
I1
sI1484
I1
sI1485
I1
sI1486
I1
sI1487
I1
sI1488
I1
sI1489
I1
sI1490
I1
sI1491
I1
sI1492
I1
sI1493
I1
sI1494
I1
sI1495
I1
sI1496
I1
sI1497
I1
sI1498
I1
sI1499
I1
sI1500
I1
sI1501
I1
sI1502
I1
sI1503
I1
sI1504
I1
sI1505
I1
sI1506
I1
sI1507
I1
sI1508
I1
sI1509
I1
sI1510
I1
sI1511
I1
sI1512
I1
sI1513
I1
sI1514
I1
sI1515
I1
sI1516
I1
sI1517
I1
sI1518
I1
sI1519
I1
sI1520
I1
sI1521
I1
sI1522
I1
sI1523
I1
sI1524
I1
sI1525
I1
sI1526
I1
sI1527
I1
sI1528
I1
sI1529
I1
sI1530
I1
sI1531
I1
sI1532
I1
sI1533
I1
sI1534
I1
sI1535
I1
sI1536
I1
sI1537
I1
sI1538
I1
sI1539
I1
sI1540
I1
sI1541
I1
sI1542
I1
sI1543
I1
sI1544
I1
sI1545
I1
sI1546
I1
sI1547
I1
sI1548
I1
sI1549
I1
sI1550
I1
sI1551
I1
sI1552
I1
sI1553
I1
sI1554
I1
sI1555
I1
sI1556
I1
sI1557
I1
sI1558
I1
sI1559
I1
sI1560
I1
sI1561
I1
sI1562
I1
sI1563
I1
sI1564
I1
sI1565
I1
sI1566
I1
sI1567
I1
sI1568
I1
sI1569
I1
sI1570
I1
sI1571
I1
sI1572
I1
sI1573
I1
sI1574
I1
sI1575
I1
sI1576
I1
sI1577
I1
sI1578
I1
sI1579
I1
sI1580
I1
sI1581
I1
sI1582
I1
sI1583
I1
sI1584
I1
sI1585
I1
sI1586
I1
sI1587
I1
sI1588
I1
sI1589
I1
sI1590
I1
sI1591
I1
sI1592
I1
sI1593
I1
sI1594
I1
sI1595
I1
sI1596
I1
sI1597
I1
sI1598
I1
sI1599
I1
sI1600
I1
sI1601
I1
sI1602
I1
sI1603
I1
sI1604
I1
sI1605
I1
sI1606
I1
sI1607
I1
sI1608
I1
sI1609
I1
sI1610
I1
sI1611
I1
sI1612
I1
sI1613
I1
sI1614
I1
sI1615
I1
sI1616
I1
sI1617
I1
sI1618
I1
sI1619
I1
sI1620
I1
sI1621
I1
sI1622
I1
sI1623
I1
sI1624
I1
sI1625
I1
sI1626
I1
sI1627
I1
sI1628
I1
sI1629
I1
sI1630
I1
sI1631
I1
sI1632
I1
sI1633
I1
sI1634
I1
sI1635
I1
sI1636
I1
sI1637
I1
sI1638
I1
sI1639
I1
sI1640
I1
sI1641
I1
sI1642
I1
sI1643
I1
sI1644
I1
sI1645
I1
sI1646
I1
sI1647
I1
sI1648
I1
sI1649
I1
sI1650
I1
sI1651
I1
sI1652
I1
sI1653
I1
sI1654
I1
sI1655
I1
sI1656
I1
sI1657
I1
sI1658
I1
sI1659
I1
sI1660
I1
sI1661
I1
sI1662
I1
sI1663
I1
sI1664
I1
sI1665
I1
sI1666
I1
sI1667
I1
sI1668
I1
sI1669
I1
sI1670
I1
sI1671
I1
sI1672
I1
sI1673
I1
sI1674
I1
sI1675
I1
sI1676
I1
sI1677
I1
sI1678
I1
sI1679
I1
sI1680
I1
sI1681
I1
sI1682
I1
sI1683
I1
sI1684
I1
sI1685
I1
sI1686
I1
sI1687
I1
sI1688
I1
sI1689
I1
sI1690
I1
sI1691
I1
sI1692
I1
sI1693
I1
sI1694
I1
sI1695
I1
sI1696
I1
sI1697
I1
sI1698
I1
sI1699
I1
sI1700
I1
sI1701
I1
sI1702
I1
sI1703
I1
sI1704
I1
sI1705
I1
sI1706
I1
sI1707
I1
sI1708
I1
sI1709
I1
sI1710
I1
sI1711
I1
sI1712
I1
sI1713
I1
sI1714
I1
sI1715
I1
sI1716
I1
sI1717
I1
sI1718
I1
sI1719
I1
sI1720
I1
sI1721
I1
sI1722
I1
sI1723
I1
sI1724
I1
sI1725
I1
sI1726
I1
sI1727
I1
sI1728
I1
sI1729
I1
sI1730
I1
sI1731
I1
sI1732
I1
sI1733
I1
sI1734
I1
sI1735
I1
sI1736
I1
sI1737
I1
sI1738
I1
sI1739
I1
sI1740
I1
sI1741
I1
sI1742
I1
sI1743
I1
sI1744
I1
sI1745
I1
sI1746
I1
sI1747
I1
sI1748
I1
sI1749
I1
sI1750
I1
sI1751
I1
sI1752
I1
sI1753
I1
sI1754
I1
sI1755
I1
sI1756
I1
sI1757
I1
sI1758
I1
sI1759
I1
sI1760
I1
sI1761
I1
sI1762
I1
sI1763
I1
sI1764
I1
sI1765
I1
sI1766
I1
sI1767
I1
sI1768
I1
sI1769
I1
sI1770
I1
sI1771
I1
sI1772
I1
sI1773
I1
sI1774
I1
sI1775
I1
sI1776
I1
sI1777
I1
sI1778
I1
sI1779
I1
sI1780
I1
sI1781
I1
sI1782
I1
sI1783
I1
sI1784
I1
sI1785
I1
sI1786
I1
sI1787
I1
sI1788
I1
sI1789
I1
sI1790
I1
sI1791
I1
sI1792
I1
sI1793
I1
sI1794
I1
sI1795
I1
sI1796
I1
sI1797
I1
sI1798
I1
sI1799
I1
sI1800
I1
sI1801
I1
sI1802
I1
sI1803
I1
sI1804
I1
sI1805
I1
sI1806
I1
sI1807
I1
sI1808
I1
sI1809
I1
sI1810
I1
sI1811
I1
sI1812
I1
sI1813
I1
sI1814
I1
sI1815
I1
sI1816
I1
sI1817
I1
sI1818
I1
sI1819
I1
sI1820
I1
sI1821
I1
sI1822
I1
sI1823
I1
sI1824
I1
sI1825
I1
sI1826
I1
sI1827
I1
sI1828
I1
sI1829
I1
sI1830
I1
sI1831
I1
sI1832
I1
sI1833
I1
sI1834
I1
sI1835
I1
sI1836
I1
sI1837
I1
sI1838
I1
sI1839
I1
sI1840
I1
sI1841
I1
sI1842
I1
sI1843
I1
sI1844
I1
sI1845
I1
sI1846
I1
sI1847
I1
sI1848
I1
sI1849
I1
sI1850
I1
sI1851
I1
sI1852
I1
sI1853
I1
sI1854
I1
sI1855
I1
sI1856
I1
sI1857
I1
sI1858
I1
sI1859
I1
sI1860
I1
sI1861
I1
sI1862
I1
sI1863
I1
sI1864
I1
sI1865
I1
sI1866
I1
sI1867
I1
sI1868
I1
sI1869
I1
sI1870
I1
sI1871
I1
sI1872
I1
sI1873
I1
sI1874
I1
sI1875
I1
sI1876
I1
sI1877
I1
sI1878
I1
sI1879
I1
sI1880
I1
sI1881
I1
sI1882
I1
sI1883
I1
sI1884
I1
sI1885
I1
sI1886
I1
sI1887
I1
sI1888
I1
sI1889
I1
sI1890
I1
sI1891
I1
sI1892
I1
sI1893
I1
sI1894
I1
sI1895
I1
sI1896
I1
sI1897
I1
sI1898
I1
sI1899
I1
sI1900
I1
sI1901
I1
sI1902
I1
sI1903
I1
sI1904
I1
sI1905
I1
sI1906
I1
sI1907
I1
sI1908
I1
sI1909
I1
sI1910
I1
sI1911
I1
sI1912
I1
sI1913
I1
sI1914
I1
sI1915
I1
sI1916
I1
sI1917
I1
sI1918
I1
sI1919
I1
sI1920
I1
sI1921
I1
sI1922
I1
sI1923
I1
sI1924
I1
sI1925
I1
sI1926
I1
sI1927
I1
sI1928
I1
sI1929
I1
sI1930
I1
sI1931
I1
sI1932
I1
sI1933
I1
sI1934
I1
sI1935
I1
sI1936
I1
sI1937
I1
sI1938
I1
sI1939
I1
sI1940
I1
sI1941
I1
sI1942
I1
sI1943
I1
sI1944
I1
sI1945
I1
sI1946
I1
sI1947
I1
sI1948
I1
sI1949
I1
sI1950
I1
sI1951
I1
sI1952
I1
sI1953
I1
sI1954
I1
sI1955
I1
sI1956
I1
sI1957
I1
sI1958
I1
sI1959
I1
sI1960
I1
sI1961
I1
sI1962
I1
sI1963
I1
sI1964
I1
sI1965
I1
sI1966
I1
sI1967
I1
sI1968
I1
sI1969
I1
sI1970
I1
sI1971
I1
sI1972
I1
sI1973
I1
sI1974
I1
sI1975
I1
sI1976
I1
sI1977
I1
sI1978
I1
sI1979
I1
sI1980
I1
sI1981
I1
sI1982
I1
sI1983
I1
sI1984
I1
sI1985
I1
sI1986
I1
sI1987
I1
sI1988
I1
sI1989
I1
sI1990
I1
sI1991
I1
sI1992
I1
sI1993
I1
sI1994
I1
sI1995
I1
sI1996
I1
sI1997
I1
sI1998
I1
sI1999
I1
sI2000
I1
sI2001
I1
sI2002
I1
sI2003
I1
sI2004
I1
sI2005
I1
sI2006
I1
sI2007
I1
sI2008
I1
sI2009
I1
sI2010
I1
sI2011
I1
sI2012
I1
sI2013
I1
sI2014
I1
sI2015
I1
sI2016
I1
sI2017
I1
sI2018
I1
sI2019
I1
sI2020
I1
sI2021
I1
sI2022
I1
sI2023
I1
sI2024
I1
sI2025
I1
sI2026
I1
sI2027
I1
sI2028
I1
sI2029
I1
sI2030
I1
sI2031
I1
sI2032
I1
sI2033
I1
sI2034
I1
sI2035
I1
sI2036
I1
sI2037
I1
sI2038
I1
sI2039
I1
sI2040
I1
sI2041
I1
sI2042
I1
sI2043
I1
sI2044
I1
sI2045
I1
sI2046
I1
sI2047
I1
sI2048
I1
sI2049
I1
sI2050
I1
sI2051
I1
sI2052
I1
sI2053
I1
sI2054
I1
sI2055
I1
sI2056
I1
sI2057
I1
sI2058
I1
sI2059
I1
sI2060
I1
sI2061
I1
sI2062
I1
sI2063
I1
sI2064
I1
sI2065
I1
sI2066
I1
sI2067
I1
sI2068
I1
sI2069
I1
sI2070
I1
sI2071
I1
sI2072
I1
sI2073
I1
sI2074
I1
sI2075
I1
sI2076
I1
sI2077
I1
sI2078
I1
sI2079
I1
sI2080
I1
sI2081
I1
sI2082
I1
sI2083
I1
sI2084
I1
sI2085
I1
sI2086
I1
sI2087
I1
sI2088
I1
sI2089
I1
sI2090
I1
sI2091
I1
sI2092
I1
sI2093
I1
sI2094
I1
sI2095
I1
sI2096
I1
sI2097
I1
sI2098
I1
sI2099
I1
sI2100
I1
sI2101
I1
sI2102
I1
sI2103
I1
sI2104
I1
sI2105
I1
sI2106
I1
sI2107
I1
sI2108
I1
sI2109
I1
sI2110
I1
sI2111
I1
sI2112
I1
sI2113
I1
sI2114
I1
sI2115
I1
sI2116
I1
sI2117
I1
sI2118
I1
sI2119
I1
sI2120
I1
sI2121
I1
sI2122
I1
sI2123
I1
sI2124
I1
sI2125
I1
sI2126
I1
sI2127
I1
sI2128
I1
sI2129
I1
sI2130
I1
sI2131
I1
sI2132
I1
sI2133
I1
sI2134
I1
sI2135
I1
sI2136
I1
sI2137
I1
sI2138
I1
sI2139
I1
sI2140
I1
sI2141
I1
sI2142
I1
sI2143
I1
sI2144
I1
sI2145
I1
sI2146
I1
sI2147
I1
sI2148
I1
sI2149
I1
sI2150
I1
sI2151
I1
sI2152
I1
sI2153
I1
sI2154
I1
sI2155
I1
sI2156
I1
sI2157
I1
sI2158
I1
sI2159
I1
sI2160
I1
sI2161
I1
sI2162
I1
sI2163
I1
sI2164
I1
sI2165
I1
sI2166
I1
sI2167
I1
sI2168
I1
sI2169
I1
sI2170
I1
sI2171
I1
sI2172
I1
sI2173
I1
sI2174
I1
sI2175
I1
sI2176
I1
sI2177
I1
sI2178
I1
sI2179
I1
sI2180
I1
sI2181
I1
sI2182
I1
sI2183
I1
sI2184
I1
sI2185
I1
sI2186
I1
sI2187
I1
sI2188
I1
sI2189
I1
sI2190
I1
sI2191
I1
sI2192
I1
sI2193
I1
sI2194
I1
sI2195
I1
sI2196
I1
sI2197
I1
sI2198
I1
sI2199
I1
sI2200
I1
sI2201
I1
sI2202
I1
sI2203
I1
sI2204
I1
sI2205
I1
sI2206
I1
sI2207
I1
sI2208
I1
sI2209
I1
sI2210
I1
sI2211
I1
sI2212
I1
sI2213
I1
sI2214
I1
sI2215
I1
sI2216
I1
sI2217
I1
sI2218
I1
sI2219
I1
sI2220
I1
sI2221
I1
sI2222
I1
sI2223
I1
sI2224
I1
sI2225
I1
sI2226
I1
sI2227
I1
sI2228
I1
sI2229
I1
sI2230
I1
sI2231
I1
sI2232
I1
sI2233
I1
sI2234
I1
sI2235
I1
sI2236
I1
sI2237
I1
sI2238
I1
sI2239
I1
sI2240
I1
sI2241
I1
sI2242
I1
sI2243
I1
sI2244
I1
sI2245
I1
sI2246
I1
sI2247
I1
sI2248
I1
sI2249
I1
sI2250
I1
sI2251
I1
sI2252
I1
sI2253
I1
sI2254
I1
sI2255
I1
sI2256
I1
sI2257
I1
sI2258
I1
sI2259
I1
sI2260
I1
sI2261
I1
sI2262
I1
sI2263
I1
sI2264
I1
sI2265
I1
sI2266
I1
sI2267
I1
sI2268
I1
sI2269
I1
sI2270
I1
sI2271
I1
sI2272
I1
sI2273
I1
sI2274
I1
sI2275
I1
sI2276
I1
sI2277
I1
sI2278
I1
sI2279
I1
sI2280
I1
sI2281
I1
sI2282
I1
sI2283
I1
sI2284
I1
sI2285
I1
sI2286
I1
sI2287
I1
sI2288
I1
sI2289
I1
sI2290
I1
sI2291
I1
sI2292
I1
sI2293
I1
sI2294
I1
sI2295
I1
sI2296
I1
sI2297
I1
sI2298
I1
sI2299
I1
sI2300
I1
sI2301
I1
sI2302
I1
sI2303
I1
sI2304
I1
sI2305
I1
sI2306
I1
sI2307
I1
sI2308
I1
sI2309
I1
sI2310
I1
sI2311
I1
sI2312
I1
sI2313
I1
sI2314
I1
sI2315
I1
sI2316
I1
sI2317
I1
sI2318
I1
sI2319
I1
sI2320
I1
sI2321
I1
sI2322
I1
sI2323
I1
sI2324
I1
sI2325
I1
sI2326
I1
sI2327
I1
sI2328
I1
sI2329
I1
sI2330
I1
sI2331
I1
sI2332
I1
sI2333
I1
sI2334
I1
sI2335
I1
sI2336
I1
sI2337
I1
sI2338
I1
sI2339
I1
sI2340
I1
sI2341
I1
sI2342
I1
sI2343
I1
sI2344
I1
sI2345
I1
sI2346
I1
sI2347
I1
sI2348
I1
sI2349
I1
sI2350
I1
sI2351
I1
sI2352
I1
sI2353
I1
sI2354
I1
sI2355
I1
sI2356
I1
sI2357
I1
sI2358
I1
sI2359
I1
sI2360
I1
sI2361
I1
sI2362
I1
sI2363
I1
sI2364
I1
sI2365
I1
sI2366
I1
sI2367
I1
sI2368
I1
sI2369
I1
sI2370
I1
sI2371
I1
sI2372
I1
sI2373
I1
sI2374
I1
sI2375
I1
sI2376
I1
sI2377
I1
sI2378
I1
sI2379
I1
sI2380
I1
sI2381
I1
sI2382
I1
sI2383
I1
sI2384
I1
sI2385
I1
sI2386
I1
sI2387
I1
sI2388
I1
sI2389
I1
sI2390
I1
sI2391
I1
sI2392
I1
sI2393
I1
sI2394
I1
sI2395
I1
sI2396
I1
sI2397
I1
sI2398
I1
sI2399
I1
sI2400
I1
sI2401
I1
sI2402
I1
sI2403
I1
sI2404
I1
sI2405
I1
sI2406
I1
sI2407
I1
sI2408
I1
sI2409
I1
sI2410
I1
sI2411
I1
sI2412
I1
sI2413
I1
sI2414
I1
sI2415
I1
sI2416
I1
sI2417
I1
sI2418
I1
sI2419
I1
sI2420
I1
sI2421
I1
sI2422
I1
sI2423
I1
sI2424
I1
sI2425
I1
sI2426
I1
sI2427
I1
sI2428
I1
sI2429
I1
sI2430
I1
sI2431
I1
sI2432
I1
sI2433
I1
sI2434
I1
sI2435
I1
sI2436
I1
sI2437
I1
sI2438
I1
sI2439
I1
sI2440
I1
sI2441
I1
sI2442
I1
sI2443
I1
sI2444
I1
sI2445
I1
sI2446
I1
sI2447
I1
sI2448
I1
sI2449
I1
sI2450
I1
sI2451
I1
sI2452
I1
sI2453
I1
sI2454
I1
sI2455
I1
sI2456
I1
sI2457
I1
sI2458
I1
sI2459
I1
sI2460
I1
sI2461
I1
sI2462
I1
sI2463
I1
sI2464
I1
sI2465
I1
sI2466
I1
sI2467
I1
sI2468
I1
sI2469
I1
sI2470
I1
sI2471
I1
sI2472
I1
sI2473
I1
sI2474
I1
sI2475
I1
sI2476
I1
sI2477
I1
sI2478
I1
sI2479
I1
sI2480
I1
sI2481
I1
sI2482
I1
sI2483
I1
sI2484
I1
sI2485
I1
sI2486
I1
sI2487
I1
sI2488
I1
sI2489
I1
sI2490
I1
sI2491
I1
sI2492
I1
sI2493
I1
sI2494
I1
sI2495
I1
sI2496
I1
sI2497
I1
sI2498
I1
sI2499
I1
sI2500
I1
sI2501
I1
sI2502
I1
sI2503
I1
sI2504
I1
sI2505
I1
sI2506
I1
sI2507
I1
sI2508
I1
sI2509
I1
sI2510
I1
sI2511
I1
sI2512
I1
sI2513
I1
sI2514
I1
sI2515
I1
sI2516
I1
sI2517
I1
sI2518
I1
sI2519
I1
sI2520
I1
sI2521
I1
sI2522
I1
sI2523
I1
sI2524
I1
sI2525
I1
sI2526
I1
sI2527
I1
sI2528
I1
sI2529
I1
sI2530
I1
sI2531
I1
sI2532
I1
sI2533
I1
sI2534
I1
sI2535
I1
sI2536
I1
sI2537
I1
sI2538
I1
sI2539
I1
sI2540
I1
sI2541
I1
sI2542
I1
sI2543
I1
sI2544
I1
sI2545
I1
sI2546
I1
sI2547
I1
sI2548
I1
sI2549
I1
sI2550
I1
sI2551
I1
sI2552
I1
sI2553
I1
sI2554
I1
sI2555
I1
sI2556
I1
sI2557
I1
sI2558
I1
sI2559
I1
sI2560
I1
sI2561
I1
sI2562
I1
sI2563
I1
sI2564
I1
sI2565
I1
sI2566
I1
sI2567
I1
sI2568
I1
sI2569
I1
sI2570
I1
ssS'document_count'
p5164
I1
sS'num_words'
p5165
Nsb.